---
triple:          'arm64-apple-darwin'
binary-path:     '/Users/egorbutyrin/study/cplusplus/1-console-app/bin/OOPCourse'
relocations:
  - { offsetInCU: 0x1A3F, offset: 0x1A3F, size: 0x8, addend: 0x0, symName: __ZNSt3__112__to_addressB8ue170006IiEEPT_S2_, symObjAddr: 0x5D8, symBinAddr: 0x100002AD4, symSize: 0x14 }
  - { offsetInCU: 0x1A74, offset: 0x1A74, size: 0x8, addend: 0x0, symName: __ZNSt3__119__libcpp_deallocateB8ue170006EPvmm, symObjAddr: 0x6B0, symBinAddr: 0x100002BAC, symSize: 0x30 }
  - { offsetInCU: 0x1ABC, offset: 0x1ABC, size: 0x8, addend: 0x0, symName: __ZNSt3__127__do_deallocate_handle_sizeB8ue170006IJEEEvPvmDpT_, symObjAddr: 0x6E0, symBinAddr: 0x100002BDC, symSize: 0x28 }
  - { offsetInCU: 0x1AFA, offset: 0x1AFA, size: 0x8, addend: 0x0, symName: __ZNSt3__124__libcpp_operator_deleteB8ue170006IJPvEEEvDpT_, symObjAddr: 0x708, symBinAddr: 0x100002C04, symSize: 0x24 }
  - { offsetInCU: 0x3EEB, offset: 0x3EEB, size: 0x8, addend: 0x0, symName: _main, symObjAddr: 0x0, symBinAddr: 0x1000024FC, symSize: 0x180 }
  - { offsetInCU: 0x4110, offset: 0x4110, size: 0x8, addend: 0x0, symName: __ZN6Matrix2atEmm, symObjAddr: 0x180, symBinAddr: 0x10000267C, symSize: 0x44 }
  - { offsetInCU: 0x4150, offset: 0x4150, size: 0x8, addend: 0x0, symName: __ZN6MatrixD1Ev, symObjAddr: 0x1C4, symBinAddr: 0x1000026C0, symSize: 0x2C }
  - { offsetInCU: 0x417A, offset: 0x417A, size: 0x8, addend: 0x0, symName: __ZNSt3__16vectorIiNS_9allocatorIiEEEixB8ue170006Em, symObjAddr: 0x1F0, symBinAddr: 0x1000026EC, symSize: 0x24 }
  - { offsetInCU: 0x41AF, offset: 0x41AF, size: 0x8, addend: 0x0, symName: __ZN6MatrixD2Ev, symObjAddr: 0x214, symBinAddr: 0x100002710, symSize: 0x30 }
  - { offsetInCU: 0x41D9, offset: 0x41D9, size: 0x8, addend: 0x0, symName: __ZNSt3__16vectorIiNS_9allocatorIiEEED1B8ue170006Ev, symObjAddr: 0x244, symBinAddr: 0x100002740, symSize: 0x2C }
  - { offsetInCU: 0x4201, offset: 0x4201, size: 0x8, addend: 0x0, symName: __ZNSt3__16vectorIiNS_9allocatorIiEEED2B8ue170006Ev, symObjAddr: 0x270, symBinAddr: 0x10000276C, symSize: 0x44 }
  - { offsetInCU: 0x4229, offset: 0x4229, size: 0x8, addend: 0x0, symName: __ZNSt3__16vectorIiNS_9allocatorIiEEE16__destroy_vectorC1B8ue170006ERS3_, symObjAddr: 0x2B4, symBinAddr: 0x1000027B0, symSize: 0x34 }
  - { offsetInCU: 0x4260, offset: 0x4260, size: 0x8, addend: 0x0, symName: __ZNSt3__16vectorIiNS_9allocatorIiEEE16__destroy_vectorclB8ue170006Ev, symObjAddr: 0x2F4, symBinAddr: 0x1000027F0, symSize: 0x90 }
  - { offsetInCU: 0x4284, offset: 0x4284, size: 0x8, addend: 0x0, symName: __ZNSt3__16vectorIiNS_9allocatorIiEEE16__destroy_vectorC2B8ue170006ERS3_, symObjAddr: 0x384, symBinAddr: 0x100002880, symSize: 0x20 }
  - { offsetInCU: 0x42BB, offset: 0x42BB, size: 0x8, addend: 0x0, symName: __ZNSt3__16vectorIiNS_9allocatorIiEEE7__clearB8ue170006Ev, symObjAddr: 0x3A4, symBinAddr: 0x1000028A0, symSize: 0x28 }
  - { offsetInCU: 0x42DF, offset: 0x42DF, size: 0x8, addend: 0x0, symName: __ZNKSt3__16vectorIiNS_9allocatorIiEEE17__annotate_deleteB8ue170006Ev, symObjAddr: 0x3CC, symBinAddr: 0x1000028C8, symSize: 0xB8 }
  - { offsetInCU: 0x4303, offset: 0x4303, size: 0x8, addend: 0x0, symName: __ZNSt3__116allocator_traitsINS_9allocatorIiEEE10deallocateB8ue170006ERS2_Pim, symObjAddr: 0x484, symBinAddr: 0x100002980, symSize: 0x34 }
  - { offsetInCU: 0x4344, offset: 0x4344, size: 0x8, addend: 0x0, symName: __ZNSt3__16vectorIiNS_9allocatorIiEEE7__allocB8ue170006Ev, symObjAddr: 0x4B8, symBinAddr: 0x1000029B4, symSize: 0x28 }
  - { offsetInCU: 0x4368, offset: 0x4368, size: 0x8, addend: 0x0, symName: __ZNKSt3__16vectorIiNS_9allocatorIiEEE8capacityB8ue170006Ev, symObjAddr: 0x4E0, symBinAddr: 0x1000029DC, symSize: 0x40 }
  - { offsetInCU: 0x438C, offset: 0x438C, size: 0x8, addend: 0x0, symName: __ZNSt3__16vectorIiNS_9allocatorIiEEE22__base_destruct_at_endB8ue170006EPi, symObjAddr: 0x520, symBinAddr: 0x100002A1C, symSize: 0x8C }
  - { offsetInCU: 0x43CE, offset: 0x43CE, size: 0x8, addend: 0x0, symName: __ZNSt3__116allocator_traitsINS_9allocatorIiEEE7destroyB8ue170006IivEEvRS2_PT_, symObjAddr: 0x5AC, symBinAddr: 0x100002AA8, symSize: 0x2C }
  - { offsetInCU: 0x440A, offset: 0x440A, size: 0x8, addend: 0x0, symName: __ZNSt3__19allocatorIiE7destroyB8ue170006EPi, symObjAddr: 0x5EC, symBinAddr: 0x100002AE8, symSize: 0x14 }
  - { offsetInCU: 0x443C, offset: 0x443C, size: 0x8, addend: 0x0, symName: __ZNKSt3__16vectorIiNS_9allocatorIiEEE31__annotate_contiguous_containerB8ue170006EPKvS5_S5_S5_, symObjAddr: 0x600, symBinAddr: 0x100002AFC, symSize: 0x20 }
  - { offsetInCU: 0x448C, offset: 0x448C, size: 0x8, addend: 0x0, symName: __ZNKSt3__16vectorIiNS_9allocatorIiEEE4dataB8ue170006Ev, symObjAddr: 0x620, symBinAddr: 0x100002B1C, symSize: 0x28 }
  - { offsetInCU: 0x44B0, offset: 0x44B0, size: 0x8, addend: 0x0, symName: __ZNKSt3__16vectorIiNS_9allocatorIiEEE4sizeB8ue170006Ev, symObjAddr: 0x648, symBinAddr: 0x100002B44, symSize: 0x28 }
  - { offsetInCU: 0x44D4, offset: 0x44D4, size: 0x8, addend: 0x0, symName: __ZNSt3__19allocatorIiE10deallocateB8ue170006EPim, symObjAddr: 0x670, symBinAddr: 0x100002B6C, symSize: 0x40 }
  - { offsetInCU: 0x4514, offset: 0x4514, size: 0x8, addend: 0x0, symName: __ZNSt3__117__compressed_pairIPiNS_9allocatorIiEEE6secondB8ue170006Ev, symObjAddr: 0x72C, symBinAddr: 0x100002C28, symSize: 0x24 }
  - { offsetInCU: 0x4538, offset: 0x4538, size: 0x8, addend: 0x0, symName: __ZNSt3__122__compressed_pair_elemINS_9allocatorIiEELi1ELb1EE5__getB8ue170006Ev, symObjAddr: 0x750, symBinAddr: 0x100002C4C, symSize: 0x14 }
  - { offsetInCU: 0x455C, offset: 0x455C, size: 0x8, addend: 0x0, symName: __ZNKSt3__16vectorIiNS_9allocatorIiEEE9__end_capB8ue170006Ev, symObjAddr: 0x764, symBinAddr: 0x100002C60, symSize: 0x28 }
  - { offsetInCU: 0x4580, offset: 0x4580, size: 0x8, addend: 0x0, symName: __ZNKSt3__117__compressed_pairIPiNS_9allocatorIiEEE5firstB8ue170006Ev, symObjAddr: 0x78C, symBinAddr: 0x100002C88, symSize: 0x24 }
  - { offsetInCU: 0x45A4, offset: 0x45A4, size: 0x8, addend: 0x0, symName: __ZNKSt3__122__compressed_pair_elemIPiLi0ELb0EE5__getB8ue170006Ev, symObjAddr: 0x7B0, symBinAddr: 0x100002CAC, symSize: 0x14 }
  - { offsetInCU: 0x5C, offset: 0x4647, size: 0x8, addend: 0x0, symName: __ZNSt3__1L19piecewise_constructE, symObjAddr: 0x91F4, symBinAddr: 0x10000B88E, symSize: 0x0 }
  - { offsetInCU: 0x443F, offset: 0x8A2A, size: 0x8, addend: 0x0, symName: __ZNSt3__124__put_character_sequenceB8ue170006IcNS_11char_traitsIcEEEERNS_13basic_ostreamIT_T0_EES7_PKS4_m, symObjAddr: 0x2F3C, symBinAddr: 0x1000055B8, symSize: 0x1EC }
  - { offsetInCU: 0x6156, offset: 0xA741, size: 0x8, addend: 0x0, symName: '__ZNSt3__110__function10__not_nullB8ue170006IZNK6Matrix3addEiE3$_0EEbRKT_', symObjAddr: 0x3BE0, symBinAddr: 0x10000625C, symSize: 0x18 }
  - { offsetInCU: 0x6189, offset: 0xA774, size: 0x8, addend: 0x0, symName: '__ZNSt3__110__function10__not_nullB8ue170006IZNK6Matrix8subtractEiE3$_1EEbRKT_', symObjAddr: 0x5680, symBinAddr: 0x100007CFC, symSize: 0x18 }
  - { offsetInCU: 0x61BC, offset: 0xA7A7, size: 0x8, addend: 0x0, symName: '__ZNSt3__110__function10__not_nullB8ue170006IZNK6Matrix8multiplyEiE3$_2EEbRKT_', symObjAddr: 0x6EE4, symBinAddr: 0x100009560, symSize: 0x18 }
  - { offsetInCU: 0x9EA0, offset: 0xE48B, size: 0x8, addend: 0x0, symName: __ZNSt3__1lsB8ue170006IcNS_11char_traitsIcEEEERNS_13basic_ostreamIT_T0_EES7_RKNS_8__iom_t6E, symObjAddr: 0x40C, symBinAddr: 0x1000030CC, symSize: 0x40 }
  - { offsetInCU: 0x9EEF, offset: 0xE4DA, size: 0x8, addend: 0x0, symName: __ZNSt3__1lsB8ue170006INS_11char_traitsIcEEEERNS_13basic_ostreamIcT_EES6_PKc, symObjAddr: 0x44C, symBinAddr: 0x10000310C, symSize: 0x48 }
  - { offsetInCU: 0x9F35, offset: 0xE520, size: 0x8, addend: 0x0, symName: __ZNSt3__14setwB8ue170006Ei, symObjAddr: 0x494, symBinAddr: 0x100003154, symSize: 0x2C }
  - { offsetInCU: 0x9F63, offset: 0xE54E, size: 0x8, addend: 0x0, symName: __ZNSt3__14endlB8ue170006IcNS_11char_traitsIcEEEERNS_13basic_ostreamIT_T0_EES7_, symObjAddr: 0x530, symBinAddr: 0x1000031AC, symSize: 0x58 }
  - { offsetInCU: 0x9FA3, offset: 0xE58E, size: 0x8, addend: 0x0, symName: __ZNSt3__19transformB8ue170006INS_11__wrap_iterIPKiEENS1_IPiEENS_8functionIFiiEEEEET0_T_SB_SA_T1_, symObjAddr: 0x9F8, symBinAddr: 0x100003674, symSize: 0x98 }
  - { offsetInCU: 0xA016, offset: 0xE601, size: 0x8, addend: 0x0, symName: '__ZNSt3__19transformB8ue170006INS_11__wrap_iterIPiEES3_ZNK6Matrix3addES4_E3$_3EET0_T_S7_S6_T1_', symObjAddr: 0xD48, symBinAddr: 0x100003998, symSize: 0x94 }
  - { offsetInCU: 0xA088, offset: 0xE673, size: 0x8, addend: 0x0, symName: '__ZNSt3__19transformB8ue170006INS_11__wrap_iterIPiEES3_ZNK6Matrix8subtractES4_E3$_4EET0_T_S7_S6_T1_', symObjAddr: 0xFA0, symBinAddr: 0x100003BF0, symSize: 0x94 }
  - { offsetInCU: 0xA0FA, offset: 0xE6E5, size: 0x8, addend: 0x0, symName: __ZNSt3__122__make_exception_guardB8ue170006INS_6vectorIiNS_9allocatorIiEEE16__destroy_vectorEEENS_28__exception_guard_exceptionsIT_EES7_, symObjAddr: 0x1D88, symBinAddr: 0x100004404, symSize: 0x40 }
  - { offsetInCU: 0xA130, offset: 0xE71B, size: 0x8, addend: 0x0, symName: __ZNSt3__119__allocate_at_leastB8ue170006INS_9allocatorIiEEEENS_19__allocation_resultINS_16allocator_traitsIT_E7pointerEEERS5_m, symObjAddr: 0x201C, symBinAddr: 0x100004698, symSize: 0x40 }
  - { offsetInCU: 0xA174, offset: 0xE75F, size: 0x8, addend: 0x0, symName: __ZNSt3__13minB8ue170006ImEERKT_S3_S3_, symObjAddr: 0x2130, symBinAddr: 0x1000047AC, symSize: 0x2C }
  - { offsetInCU: 0xA3C3, offset: 0xE9AE, size: 0x8, addend: 0x0, symName: __ZNSt3__13minB8ue170006ImNS_6__lessIvvEEEERKT_S5_S5_T0_, symObjAddr: 0x2194, symBinAddr: 0x100004810, symSize: 0x54 }
  - { offsetInCU: 0xA466, offset: 0xEA51, size: 0x8, addend: 0x0, symName: __ZNSt3__120__throw_length_errorB8ue170006EPKc, symObjAddr: 0x2238, symBinAddr: 0x1000048B4, symSize: 0x64 }
  - { offsetInCU: 0xA490, offset: 0xEA7B, size: 0x8, addend: 0x0, symName: __ZNSt3__117__libcpp_allocateB8ue170006Emm, symObjAddr: 0x23A8, symBinAddr: 0x100004A24, symSize: 0x28 }
  - { offsetInCU: 0xA4CD, offset: 0xEAB8, size: 0x8, addend: 0x0, symName: __ZNSt3__121__libcpp_operator_newB8ue170006IJmEEEPvDpT_, symObjAddr: 0x23D0, symBinAddr: 0x100004A4C, symSize: 0x24 }
  - { offsetInCU: 0xA506, offset: 0xEAF1, size: 0x8, addend: 0x0, symName: __ZNSt3__130__uninitialized_allocator_copyB8ue170006INS_9allocatorIiEEPiS3_S3_EET2_RT_T0_T1_S4_, symObjAddr: 0x2468, symBinAddr: 0x100004AE4, symSize: 0x80 }
  - { offsetInCU: 0xA5A3, offset: 0xEB8E, size: 0x8, addend: 0x0, symName: __ZNSt3__114__unwrap_rangeB8ue170006IPiS1_EENS_4pairIT0_S3_EET_S5_, symObjAddr: 0x2558, symBinAddr: 0x100004BD4, symSize: 0x60 }
  - { offsetInCU: 0xA5F0, offset: 0xEBDB, size: 0x8, addend: 0x0, symName: __ZNSt3__135__uninitialized_allocator_copy_implB8ue170006INS_9allocatorIiEEiiiLPv0EEEPT2_RT_PT0_S9_S5_, symObjAddr: 0x25B8, symBinAddr: 0x100004C34, symSize: 0x38 }
  - { offsetInCU: 0xA672, offset: 0xEC5D, size: 0x8, addend: 0x0, symName: __ZNSt3__113__unwrap_iterB8ue170006IPiNS_18__unwrap_iter_implIS1_Lb1EEELi0EEEDTclsrT0_8__unwrapclsr3stdE7declvalIT_EEEES5_, symObjAddr: 0x25F0, symBinAddr: 0x100004C6C, symSize: 0x24 }
  - { offsetInCU: 0xA6B8, offset: 0xECA3, size: 0x8, addend: 0x0, symName: __ZNSt3__113__rewrap_iterB8ue170006IPiS1_NS_18__unwrap_iter_implIS1_Lb1EEEEET_S4_T0_, symObjAddr: 0x2614, symBinAddr: 0x100004C90, symSize: 0x3C }
  - { offsetInCU: 0xA70E, offset: 0xECF9, size: 0x8, addend: 0x0, symName: __ZNSt3__19make_pairB8ue170006IPiS1_EENS_4pairINS_18__unwrap_ref_decayIT_E4typeENS3_IT0_E4typeEEEOS4_OS7_, symObjAddr: 0x2650, symBinAddr: 0x100004CCC, symSize: 0x38 }
  - { offsetInCU: 0xA862, offset: 0xEE4D, size: 0x8, addend: 0x0, symName: __ZNSt3__14copyB8ue170006IPiS1_EET0_T_S3_S2_, symObjAddr: 0x26F8, symBinAddr: 0x100004D74, symSize: 0x40 }
  - { offsetInCU: 0xA8BD, offset: 0xEEA8, size: 0x8, addend: 0x0, symName: __ZNSt3__16__copyB8ue170006INS_17_ClassicAlgPolicyEPiS2_S2_EENS_4pairIT0_T2_EES4_T1_S5_, symObjAddr: 0x2738, symBinAddr: 0x100004DB4, symSize: 0x44 }
  - { offsetInCU: 0xA92A, offset: 0xEF15, size: 0x8, addend: 0x0, symName: __ZNSt3__123__dispatch_copy_or_moveB8ue170006INS_17_ClassicAlgPolicyENS_11__copy_loopIS1_EENS_14__copy_trivialEPiS5_S5_EENS_4pairIT2_T4_EES7_T3_S8_, symObjAddr: 0x277C, symBinAddr: 0x100004DF8, symSize: 0x44 }
  - { offsetInCU: 0xA9A9, offset: 0xEF94, size: 0x8, addend: 0x0, symName: __ZNSt3__121__unwrap_and_dispatchB8ue170006INS_10__overloadINS_11__copy_loopINS_17_ClassicAlgPolicyEEENS_14__copy_trivialEEEPiS7_S7_Li0EEENS_4pairIT0_T2_EES9_T1_SA_, symObjAddr: 0x27C0, symBinAddr: 0x100004E3C, symSize: 0xB4 }
  - { offsetInCU: 0xAA80, offset: 0xF06B, size: 0x8, addend: 0x0, symName: __ZNSt3__114__rewrap_rangeB8ue170006IPiS1_EET_S2_T0_, symObjAddr: 0x28BC, symBinAddr: 0x100004F38, symSize: 0x2C }
  - { offsetInCU: 0xAACD, offset: 0xF0B8, size: 0x8, addend: 0x0, symName: __ZNSt3__119__copy_trivial_implB8ue170006IiiEENS_4pairIPT_PT0_EES3_S3_S5_, symObjAddr: 0x28E8, symBinAddr: 0x100004F64, symSize: 0x80 }
  - { offsetInCU: 0xAB36, offset: 0xF121, size: 0x8, addend: 0x0, symName: __ZNSt3__119__constexpr_memmoveB8ue170006IiiLi0EEEPT_S2_PT0_NS_15__element_countE, symObjAddr: 0x2968, symBinAddr: 0x100004FE4, symSize: 0x64 }
  - { offsetInCU: 0xABA6, offset: 0xF191, size: 0x8, addend: 0x0, symName: __ZNSt3__19make_pairB8ue170006IRPiS1_EENS_4pairINS_18__unwrap_ref_decayIT_E4typeENS4_IT0_E4typeEEEOS5_OS8_, symObjAddr: 0x29CC, symBinAddr: 0x100005048, symSize: 0x38 }
  - { offsetInCU: 0xAC49, offset: 0xF234, size: 0x8, addend: 0x0, symName: __ZNSt3__116__pad_and_outputB8ue170006IcNS_11char_traitsIcEEEENS_19ostreambuf_iteratorIT_T0_EES6_PKS4_S8_S8_RNS_8ios_baseES4_, symObjAddr: 0x3178, symBinAddr: 0x1000057F4, symSize: 0x240 }
  - { offsetInCU: 0xAD19, offset: 0xF304, size: 0x8, addend: 0x0, symName: __ZNSt3__112__to_addressB8ue170006IKcEEPT_S3_, symObjAddr: 0x36E0, symBinAddr: 0x100005D5C, symSize: 0x14 }
  - { offsetInCU: 0xAD80, offset: 0xF36B, size: 0x8, addend: 0x0, symName: __ZNSt3__19use_facetB8ue170006INS_5ctypeIcEEEERKT_RKNS_6localeE, symObjAddr: 0x3960, symBinAddr: 0x100005FDC, symSize: 0x2C }
  - { offsetInCU: 0xB24F, offset: 0xF83A, size: 0x8, addend: 0x0, symName: __ZNSt3__118__constexpr_strlenB8ue170006EPKc, symObjAddr: 0x39F8, symBinAddr: 0x100006074, symSize: 0x24 }
  - { offsetInCU: 0xB3EA, offset: 0xF9D5, size: 0x8, addend: 0x0, symName: '__ZNSt3__116forward_as_tupleB8ue170006IJZNK6Matrix3addEiE3$_0EEENS_5tupleIJDpOT_EEES6_', symObjAddr: 0x4160, symBinAddr: 0x1000067DC, symSize: 0x2C }
  - { offsetInCU: 0xB424, offset: 0xFA0F, size: 0x8, addend: 0x0, symName: '__ZNSt3__116forward_as_tupleB8ue170006IJNS_9allocatorIZNK6Matrix3addEiE3$_0EEEEENS_5tupleIJDpOT_EEES8_', symObjAddr: 0x418C, symBinAddr: 0x100006808, symSize: 0x2C }
  - { offsetInCU: 0xB4A3, offset: 0xFA8E, size: 0x8, addend: 0x0, symName: '__ZNSt3__13getB8ue170006ILm0EJOZNK6Matrix3addEiE3$_0EEERNS_13tuple_elementIXT_ENS_5tupleIJDpT0_EEEE4typeERS8_', symObjAddr: 0x44A4, symBinAddr: 0x100006B20, symSize: 0x24 }
  - { offsetInCU: 0xB4E6, offset: 0xFAD1, size: 0x8, addend: 0x0, symName: '__ZNSt3__13getB8ue170006ILm0EJONS_9allocatorIZNK6Matrix3addEiE3$_0EEEEERNS_13tuple_elementIXT_ENS_5tupleIJDpT0_EEEE4typeERSA_', symObjAddr: 0x44E0, symBinAddr: 0x100006B5C, symSize: 0x24 }
  - { offsetInCU: 0xBA32, offset: 0x1001D, size: 0x8, addend: 0x0, symName: '__ZNSt3__116forward_as_tupleB8ue170006IJRKZNK6Matrix3addEiE3$_0EEENS_5tupleIJDpOT_EEES8_', symObjAddr: 0x4A74, symBinAddr: 0x1000070F0, symSize: 0x2C }
  - { offsetInCU: 0xBA81, offset: 0x1006C, size: 0x8, addend: 0x0, symName: '__ZNSt3__13getB8ue170006ILm0EJRKZNK6Matrix3addEiE3$_0EEERNS_13tuple_elementIXT_ENS_5tupleIJDpT0_EEEE4typeERS9_', symObjAddr: 0x4C64, symBinAddr: 0x1000072E0, symSize: 0x24 }
  - { offsetInCU: 0xBAC4, offset: 0x100AF, size: 0x8, addend: 0x0, symName: '__ZNSt3__116forward_as_tupleB8ue170006IJRKNS_9allocatorIZNK6Matrix3addEiE3$_0EEEEENS_5tupleIJDpOT_EEESA_', symObjAddr: 0x4FC0, symBinAddr: 0x10000763C, symSize: 0x2C }
  - { offsetInCU: 0xBB13, offset: 0x100FE, size: 0x8, addend: 0x0, symName: '__ZNSt3__13getB8ue170006ILm0EJRKNS_9allocatorIZNK6Matrix3addEiE3$_0EEEEERNS_13tuple_elementIXT_ENS_5tupleIJDpT0_EEEE4typeERSB_', symObjAddr: 0x51A4, symBinAddr: 0x100007820, symSize: 0x24 }
  - { offsetInCU: 0xBBF5, offset: 0x101E0, size: 0x8, addend: 0x0, symName: '__ZNSt3__18__invokeB8ue170006IRZNK6Matrix3addEiE3$_0JiEEEDTclclsr3stdE7declvalIT_EEspclsr3stdE7declvalIT0_EEEEOS4_DpOS5_', symObjAddr: 0x5270, symBinAddr: 0x1000078EC, symSize: 0x30 }
  - { offsetInCU: 0xBDB4, offset: 0x1039F, size: 0x8, addend: 0x0, symName: '__ZNSt3__116forward_as_tupleB8ue170006IJZNK6Matrix8subtractEiE3$_1EEENS_5tupleIJDpOT_EEES6_', symObjAddr: 0x5BA8, symBinAddr: 0x100008224, symSize: 0x2C }
  - { offsetInCU: 0xBDEE, offset: 0x103D9, size: 0x8, addend: 0x0, symName: '__ZNSt3__116forward_as_tupleB8ue170006IJNS_9allocatorIZNK6Matrix8subtractEiE3$_1EEEEENS_5tupleIJDpOT_EEES8_', symObjAddr: 0x5BD4, symBinAddr: 0x100008250, symSize: 0x2C }
  - { offsetInCU: 0xBE52, offset: 0x1043D, size: 0x8, addend: 0x0, symName: '__ZNSt3__13getB8ue170006ILm0EJOZNK6Matrix8subtractEiE3$_1EEERNS_13tuple_elementIXT_ENS_5tupleIJDpT0_EEEE4typeERS8_', symObjAddr: 0x5EEC, symBinAddr: 0x100008568, symSize: 0x24 }
  - { offsetInCU: 0xBE95, offset: 0x10480, size: 0x8, addend: 0x0, symName: '__ZNSt3__13getB8ue170006ILm0EJONS_9allocatorIZNK6Matrix8subtractEiE3$_1EEEEERNS_13tuple_elementIXT_ENS_5tupleIJDpT0_EEEE4typeERSA_', symObjAddr: 0x5F28, symBinAddr: 0x1000085A4, symSize: 0x24 }
  - { offsetInCU: 0xC3E1, offset: 0x109CC, size: 0x8, addend: 0x0, symName: '__ZNSt3__116forward_as_tupleB8ue170006IJRKZNK6Matrix8subtractEiE3$_1EEENS_5tupleIJDpOT_EEES8_', symObjAddr: 0x64BC, symBinAddr: 0x100008B38, symSize: 0x2C }
  - { offsetInCU: 0xC430, offset: 0x10A1B, size: 0x8, addend: 0x0, symName: '__ZNSt3__13getB8ue170006ILm0EJRKZNK6Matrix8subtractEiE3$_1EEERNS_13tuple_elementIXT_ENS_5tupleIJDpT0_EEEE4typeERS9_', symObjAddr: 0x66AC, symBinAddr: 0x100008D28, symSize: 0x24 }
  - { offsetInCU: 0xC473, offset: 0x10A5E, size: 0x8, addend: 0x0, symName: '__ZNSt3__116forward_as_tupleB8ue170006IJRKNS_9allocatorIZNK6Matrix8subtractEiE3$_1EEEEENS_5tupleIJDpOT_EEESA_', symObjAddr: 0x6A08, symBinAddr: 0x100009084, symSize: 0x2C }
  - { offsetInCU: 0xC4C2, offset: 0x10AAD, size: 0x8, addend: 0x0, symName: '__ZNSt3__13getB8ue170006ILm0EJRKNS_9allocatorIZNK6Matrix8subtractEiE3$_1EEEEERNS_13tuple_elementIXT_ENS_5tupleIJDpT0_EEEE4typeERSB_', symObjAddr: 0x6BEC, symBinAddr: 0x100009268, symSize: 0x24 }
  - { offsetInCU: 0xC505, offset: 0x10AF0, size: 0x8, addend: 0x0, symName: '__ZNSt3__18__invokeB8ue170006IRZNK6Matrix8subtractEiE3$_1JiEEEDTclclsr3stdE7declvalIT_EEspclsr3stdE7declvalIT0_EEEEOS4_DpOS5_', symObjAddr: 0x6CB8, symBinAddr: 0x100009334, symSize: 0x30 }
  - { offsetInCU: 0xC6C4, offset: 0x10CAF, size: 0x8, addend: 0x0, symName: '__ZNSt3__116forward_as_tupleB8ue170006IJZNK6Matrix8multiplyEiE3$_2EEENS_5tupleIJDpOT_EEES6_', symObjAddr: 0x740C, symBinAddr: 0x100009A88, symSize: 0x2C }
  - { offsetInCU: 0xC6FE, offset: 0x10CE9, size: 0x8, addend: 0x0, symName: '__ZNSt3__116forward_as_tupleB8ue170006IJNS_9allocatorIZNK6Matrix8multiplyEiE3$_2EEEEENS_5tupleIJDpOT_EEES8_', symObjAddr: 0x7438, symBinAddr: 0x100009AB4, symSize: 0x2C }
  - { offsetInCU: 0xC762, offset: 0x10D4D, size: 0x8, addend: 0x0, symName: '__ZNSt3__13getB8ue170006ILm0EJOZNK6Matrix8multiplyEiE3$_2EEERNS_13tuple_elementIXT_ENS_5tupleIJDpT0_EEEE4typeERS8_', symObjAddr: 0x7750, symBinAddr: 0x100009DCC, symSize: 0x24 }
  - { offsetInCU: 0xC7A5, offset: 0x10D90, size: 0x8, addend: 0x0, symName: '__ZNSt3__13getB8ue170006ILm0EJONS_9allocatorIZNK6Matrix8multiplyEiE3$_2EEEEERNS_13tuple_elementIXT_ENS_5tupleIJDpT0_EEEE4typeERSA_', symObjAddr: 0x778C, symBinAddr: 0x100009E08, symSize: 0x24 }
  - { offsetInCU: 0xCCF1, offset: 0x112DC, size: 0x8, addend: 0x0, symName: '__ZNSt3__116forward_as_tupleB8ue170006IJRKZNK6Matrix8multiplyEiE3$_2EEENS_5tupleIJDpOT_EEES8_', symObjAddr: 0x7D20, symBinAddr: 0x10000A39C, symSize: 0x2C }
  - { offsetInCU: 0xCD40, offset: 0x1132B, size: 0x8, addend: 0x0, symName: '__ZNSt3__13getB8ue170006ILm0EJRKZNK6Matrix8multiplyEiE3$_2EEERNS_13tuple_elementIXT_ENS_5tupleIJDpT0_EEEE4typeERS9_', symObjAddr: 0x7F10, symBinAddr: 0x10000A58C, symSize: 0x24 }
  - { offsetInCU: 0xCD83, offset: 0x1136E, size: 0x8, addend: 0x0, symName: '__ZNSt3__116forward_as_tupleB8ue170006IJRKNS_9allocatorIZNK6Matrix8multiplyEiE3$_2EEEEENS_5tupleIJDpOT_EEESA_', symObjAddr: 0x826C, symBinAddr: 0x10000A8E8, symSize: 0x2C }
  - { offsetInCU: 0xCDD2, offset: 0x113BD, size: 0x8, addend: 0x0, symName: '__ZNSt3__13getB8ue170006ILm0EJRKNS_9allocatorIZNK6Matrix8multiplyEiE3$_2EEEEERNS_13tuple_elementIXT_ENS_5tupleIJDpT0_EEEE4typeERSB_', symObjAddr: 0x8450, symBinAddr: 0x10000AACC, symSize: 0x24 }
  - { offsetInCU: 0xCE15, offset: 0x11400, size: 0x8, addend: 0x0, symName: '__ZNSt3__18__invokeB8ue170006IRZNK6Matrix8multiplyEiE3$_2JiEEEDTclclsr3stdE7declvalIT_EEspclsr3stdE7declvalIT0_EEEEOS4_DpOS5_', symObjAddr: 0x851C, symBinAddr: 0x10000AB98, symSize: 0x30 }
  - { offsetInCU: 0xCE66, offset: 0x11451, size: 0x8, addend: 0x0, symName: __ZNSt3__1neB8ue170006IPKiEEbRKNS_11__wrap_iterIT_EES7_, symObjAddr: 0x868C, symBinAddr: 0x10000AD08, symSize: 0x34 }
  - { offsetInCU: 0xCEAA, offset: 0x11495, size: 0x8, addend: 0x0, symName: __ZNSt3__1eqB8ue170006IPKiEEbRKNS_11__wrap_iterIT_EES7_, symObjAddr: 0x8760, symBinAddr: 0x10000ADDC, symSize: 0x48 }
  - { offsetInCU: 0xCEEF, offset: 0x114DA, size: 0x8, addend: 0x0, symName: __ZNSt3__125__throw_bad_function_callB8ue170006Ev, symObjAddr: 0x8818, symBinAddr: 0x10000AE94, symSize: 0x38 }
  - { offsetInCU: 0xCF3F, offset: 0x1152A, size: 0x8, addend: 0x0, symName: __ZNSt3__1neB8ue170006IPiEEbRKNS_11__wrap_iterIT_EES6_, symObjAddr: 0x8AA8, symBinAddr: 0x10000B124, symSize: 0x34 }
  - { offsetInCU: 0xCF83, offset: 0x1156E, size: 0x8, addend: 0x0, symName: __ZNSt3__1eqB8ue170006IPiEEbRKNS_11__wrap_iterIT_EES6_, symObjAddr: 0x8B2C, symBinAddr: 0x10000B1A8, symSize: 0x48 }
  - { offsetInCU: 0xD673, offset: 0x11C5E, size: 0x8, addend: 0x0, symName: __ZSt28__throw_bad_array_new_lengthB8ue170006v, symObjAddr: 0x2374, symBinAddr: 0x1000049F0, symSize: 0x34 }
  - { offsetInCU: 0xDE32, offset: 0x1241D, size: 0x8, addend: 0x0, symName: __ZNK6Matrix3addEi, symObjAddr: 0x588, symBinAddr: 0x100003204, symSize: 0xBC }
  - { offsetInCU: 0xE0A9, offset: 0x12694, size: 0x8, addend: 0x0, symName: __ZNK6Matrix8subtractEi, symObjAddr: 0x808, symBinAddr: 0x100003484, symSize: 0xBC }
  - { offsetInCU: 0xE307, offset: 0x128F2, size: 0x8, addend: 0x0, symName: __ZNK6Matrix8multiplyEi, symObjAddr: 0x900, symBinAddr: 0x10000357C, symSize: 0xBC }
  - { offsetInCU: 0x102B6, offset: 0x148A1, size: 0x8, addend: 0x0, symName: __ZN6MatrixC2Ev, symObjAddr: 0x0, symBinAddr: 0x100002CC0, symSize: 0x38 }
  - { offsetInCU: 0x102E0, offset: 0x148CB, size: 0x8, addend: 0x0, symName: __ZNSt3__16vectorIiNS_9allocatorIiEEEC1B8ue170006Ev, symObjAddr: 0x38, symBinAddr: 0x100002CF8, symSize: 0x2C }
  - { offsetInCU: 0x10308, offset: 0x148F3, size: 0x8, addend: 0x0, symName: __ZN6MatrixC1Ev, symObjAddr: 0x64, symBinAddr: 0x100002D24, symSize: 0x2C }
  - { offsetInCU: 0x10332, offset: 0x1491D, size: 0x8, addend: 0x0, symName: __ZN6MatrixC2ERKS_, symObjAddr: 0x90, symBinAddr: 0x100002D50, symSize: 0x54 }
  - { offsetInCU: 0x1036A, offset: 0x14955, size: 0x8, addend: 0x0, symName: __ZNSt3__16vectorIiNS_9allocatorIiEEEC1ERKS3_, symObjAddr: 0xE4, symBinAddr: 0x100002DA4, symSize: 0x34 }
  - { offsetInCU: 0x103A4, offset: 0x1498F, size: 0x8, addend: 0x0, symName: __ZN6MatrixC1ERKS_, symObjAddr: 0x118, symBinAddr: 0x100002DD8, symSize: 0x34 }
  - { offsetInCU: 0x103DC, offset: 0x149C7, size: 0x8, addend: 0x0, symName: __ZN6MatrixC2Emm, symObjAddr: 0x14C, symBinAddr: 0x100002E0C, symSize: 0x54 }
  - { offsetInCU: 0x10422, offset: 0x14A0D, size: 0x8, addend: 0x0, symName: __ZNSt3__16vectorIiNS_9allocatorIiEEEC1Em, symObjAddr: 0x1A0, symBinAddr: 0x100002E60, symSize: 0x34 }
  - { offsetInCU: 0x1045C, offset: 0x14A47, size: 0x8, addend: 0x0, symName: __ZN6MatrixC1Emm, symObjAddr: 0x1D4, symBinAddr: 0x100002E94, symSize: 0x3C }
  - { offsetInCU: 0x104A2, offset: 0x14A8D, size: 0x8, addend: 0x0, symName: __ZN6MatrixC2Emmi, symObjAddr: 0x210, symBinAddr: 0x100002ED0, symSize: 0x5C }
  - { offsetInCU: 0x104F6, offset: 0x14AE1, size: 0x8, addend: 0x0, symName: __ZNSt3__16vectorIiNS_9allocatorIiEEEC1EmRKi, symObjAddr: 0x26C, symBinAddr: 0x100002F2C, symSize: 0x3C }
  - { offsetInCU: 0x1053F, offset: 0x14B2A, size: 0x8, addend: 0x0, symName: __ZN6MatrixC1Emmi, symObjAddr: 0x2A8, symBinAddr: 0x100002F68, symSize: 0x44 }
  - { offsetInCU: 0x10593, offset: 0x14B7E, size: 0x8, addend: 0x0, symName: __ZN6Matrix5printEv, symObjAddr: 0x2EC, symBinAddr: 0x100002FAC, symSize: 0x120 }
  - { offsetInCU: 0x105F4, offset: 0x14BDF, size: 0x8, addend: 0x0, symName: __ZNSt3__113basic_ostreamIcNS_11char_traitsIcEEElsB8ue170006EPFRS3_S4_E, symObjAddr: 0x504, symBinAddr: 0x100003180, symSize: 0x2C }
  - { offsetInCU: 0x10626, offset: 0x14C11, size: 0x8, addend: 0x0, symName: __ZNK6Matrix16performOperationENSt3__18functionIFiiEEE, symObjAddr: 0x644, symBinAddr: 0x1000032C0, symSize: 0x15C }
  - { offsetInCU: 0x1066B, offset: 0x14C56, size: 0x8, addend: 0x0, symName: '__ZNSt3__18functionIFiiEEC1IZNK6Matrix3addEiE3$_0vEET_', symObjAddr: 0x7A0, symBinAddr: 0x10000341C, symSize: 0x3C }
  - { offsetInCU: 0x106AF, offset: 0x14C9A, size: 0x8, addend: 0x0, symName: __ZNSt3__18functionIFiiEED1Ev, symObjAddr: 0x7DC, symBinAddr: 0x100003458, symSize: 0x2C }
  - { offsetInCU: 0x106DA, offset: 0x14CC5, size: 0x8, addend: 0x0, symName: '__ZNSt3__18functionIFiiEEC1IZNK6Matrix8subtractEiE3$_1vEET_', symObjAddr: 0x8C4, symBinAddr: 0x100003540, symSize: 0x3C }
  - { offsetInCU: 0x1071E, offset: 0x14D09, size: 0x8, addend: 0x0, symName: '__ZNSt3__18functionIFiiEEC1IZNK6Matrix8multiplyEiE3$_2vEET_', symObjAddr: 0x9BC, symBinAddr: 0x100003638, symSize: 0x3C }
  - { offsetInCU: 0x10762, offset: 0x14D4D, size: 0x8, addend: 0x0, symName: __ZNKSt3__16vectorIiNS_9allocatorIiEEE5beginB8ue170006Ev, symObjAddr: 0xA90, symBinAddr: 0x10000370C, symSize: 0x30 }
  - { offsetInCU: 0x10789, offset: 0x14D74, size: 0x8, addend: 0x0, symName: __ZNKSt3__16vectorIiNS_9allocatorIiEEE3endB8ue170006Ev, symObjAddr: 0xAC0, symBinAddr: 0x10000373C, symSize: 0x30 }
  - { offsetInCU: 0x107B0, offset: 0x14D9B, size: 0x8, addend: 0x0, symName: __ZNSt3__16vectorIiNS_9allocatorIiEEE5beginB8ue170006Ev, symObjAddr: 0xAF0, symBinAddr: 0x10000376C, symSize: 0x30 }
  - { offsetInCU: 0x107D7, offset: 0x14DC2, size: 0x8, addend: 0x0, symName: __ZNSt3__18functionIFiiEEC1ERKS2_, symObjAddr: 0xB20, symBinAddr: 0x10000379C, symSize: 0x34 }
  - { offsetInCU: 0x10811, offset: 0x14DFC, size: 0x8, addend: 0x0, symName: __ZNK6Matrix3addES_, symObjAddr: 0xB80, symBinAddr: 0x1000037D0, symSize: 0x194 }
  - { offsetInCU: 0x1088D, offset: 0x14E78, size: 0x8, addend: 0x0, symName: __ZNSt16invalid_argumentC1B8ue170006EPKc, symObjAddr: 0xD14, symBinAddr: 0x100003964, symSize: 0x34 }
  - { offsetInCU: 0x108C3, offset: 0x14EAE, size: 0x8, addend: 0x0, symName: __ZNSt3__16vectorIiNS_9allocatorIiEEE3endB8ue170006Ev, symObjAddr: 0xDDC, symBinAddr: 0x100003A2C, symSize: 0x30 }
  - { offsetInCU: 0x108EA, offset: 0x14ED5, size: 0x8, addend: 0x0, symName: __ZNK6Matrix8subtractES_, symObjAddr: 0xE0C, symBinAddr: 0x100003A5C, symSize: 0x194 }
  - { offsetInCU: 0x10966, offset: 0x14F51, size: 0x8, addend: 0x0, symName: __ZNK6Matrix8multiplyES_, symObjAddr: 0x1034, symBinAddr: 0x100003C84, symSize: 0x2A4 }
  - { offsetInCU: 0x10A05, offset: 0x14FF0, size: 0x8, addend: 0x0, symName: __ZNK6Matrix10getColSizeEv, symObjAddr: 0x12D8, symBinAddr: 0x100003F28, symSize: 0x18 }
  - { offsetInCU: 0x10A29, offset: 0x15014, size: 0x8, addend: 0x0, symName: __ZNK6Matrix10getRowSizeEv, symObjAddr: 0x12F0, symBinAddr: 0x100003F40, symSize: 0x18 }
  - { offsetInCU: 0x10A4D, offset: 0x15038, size: 0x8, addend: 0x0, symName: __ZNK6Matrix2atEmm, symObjAddr: 0x1308, symBinAddr: 0x100003F58, symSize: 0x44 }
  - { offsetInCU: 0x10A8D, offset: 0x15078, size: 0x8, addend: 0x0, symName: __ZNSt3__18__iom_t6C1B8ue170006Ei, symObjAddr: 0x134C, symBinAddr: 0x100003F9C, symSize: 0x34 }
  - { offsetInCU: 0x10AC3, offset: 0x150AE, size: 0x8, addend: 0x0, symName: __ZNSt3__18__iom_t6C2B8ue170006Ei, symObjAddr: 0x1380, symBinAddr: 0x100003FD0, symSize: 0x20 }
  - { offsetInCU: 0x10AF9, offset: 0x150E4, size: 0x8, addend: 0x0, symName: __ZNSt16invalid_argumentC2B8ue170006EPKc, symObjAddr: 0x1974, symBinAddr: 0x100003FF0, symSize: 0x4C }
  - { offsetInCU: 0x10B2F, offset: 0x1511A, size: 0x8, addend: 0x0, symName: __ZNKSt3__16vectorIiNS_9allocatorIiEEEixB8ue170006Em, symObjAddr: 0x19C0, symBinAddr: 0x10000403C, symSize: 0x24 }
  - { offsetInCU: 0x10B64, offset: 0x1514F, size: 0x8, addend: 0x0, symName: __ZNSt3__16vectorIiNS_9allocatorIiEEEC2B8ue170006Ev, symObjAddr: 0x19E4, symBinAddr: 0x100004060, symSize: 0x4C }
  - { offsetInCU: 0x10B96, offset: 0x15181, size: 0x8, addend: 0x0, symName: __ZNSt3__117__compressed_pairIPiNS_9allocatorIiEEEC1B8ue170006IDnNS_18__default_init_tagEEEOT_OT0_, symObjAddr: 0x1A30, symBinAddr: 0x1000040AC, symSize: 0x3C }
  - { offsetInCU: 0x10BEC, offset: 0x151D7, size: 0x8, addend: 0x0, symName: __ZNSt3__117__compressed_pairIPiNS_9allocatorIiEEEC2B8ue170006IDnNS_18__default_init_tagEEEOT_OT0_, symObjAddr: 0x1A6C, symBinAddr: 0x1000040E8, symSize: 0x40 }
  - { offsetInCU: 0x10C42, offset: 0x1522D, size: 0x8, addend: 0x0, symName: __ZNSt3__122__compressed_pair_elemIPiLi0ELb0EEC2B8ue170006IDnvEEOT_, symObjAddr: 0x1AAC, symBinAddr: 0x100004128, symSize: 0x1C }
  - { offsetInCU: 0x10C82, offset: 0x1526D, size: 0x8, addend: 0x0, symName: __ZNSt3__122__compressed_pair_elemINS_9allocatorIiEELi1ELb1EEC2B8ue170006ENS_18__default_init_tagE, symObjAddr: 0x1AC8, symBinAddr: 0x100004144, symSize: 0x2C }
  - { offsetInCU: 0x10CB5, offset: 0x152A0, size: 0x8, addend: 0x0, symName: __ZNSt3__19allocatorIiEC2B8ue170006Ev, symObjAddr: 0x1AF4, symBinAddr: 0x100004170, symSize: 0x2C }
  - { offsetInCU: 0x10CDD, offset: 0x152C8, size: 0x8, addend: 0x0, symName: __ZNSt3__116__non_trivial_ifILb1ENS_9allocatorIiEEEC2B8ue170006Ev, symObjAddr: 0x1B20, symBinAddr: 0x10000419C, symSize: 0x14 }
  - { offsetInCU: 0x10D05, offset: 0x152F0, size: 0x8, addend: 0x0, symName: __ZNSt3__16vectorIiNS_9allocatorIiEEEC2ERKS3_, symObjAddr: 0x1B34, symBinAddr: 0x1000041B0, symSize: 0x94 }
  - { offsetInCU: 0x10D49, offset: 0x15334, size: 0x8, addend: 0x0, symName: __ZNSt3__116allocator_traitsINS_9allocatorIiEEE37select_on_container_copy_constructionB8ue170006IS2_vvEES2_RKS2_, symObjAddr: 0x1BC8, symBinAddr: 0x100004244, symSize: 0x10 }
  - { offsetInCU: 0x10D78, offset: 0x15363, size: 0x8, addend: 0x0, symName: __ZNKSt3__16vectorIiNS_9allocatorIiEEE7__allocB8ue170006Ev, symObjAddr: 0x1BD8, symBinAddr: 0x100004254, symSize: 0x28 }
  - { offsetInCU: 0x10DA1, offset: 0x1538C, size: 0x8, addend: 0x0, symName: __ZNSt3__117__compressed_pairIPiNS_9allocatorIiEEEC1B8ue170006IDnS3_EEOT_OT0_, symObjAddr: 0x1C00, symBinAddr: 0x10000427C, symSize: 0x3C }
  - { offsetInCU: 0x10DF7, offset: 0x153E2, size: 0x8, addend: 0x0, symName: __ZNSt3__16vectorIiNS_9allocatorIiEEE16__init_with_sizeB8ue170006IPiS5_EEvT_T0_m, symObjAddr: 0x1C3C, symBinAddr: 0x1000042B8, symSize: 0xB8 }
  - { offsetInCU: 0x10E69, offset: 0x15454, size: 0x8, addend: 0x0, symName: __ZNKSt3__117__compressed_pairIPiNS_9allocatorIiEEE6secondB8ue170006Ev, symObjAddr: 0x1CF4, symBinAddr: 0x100004370, symSize: 0x24 }
  - { offsetInCU: 0x10E8D, offset: 0x15478, size: 0x8, addend: 0x0, symName: __ZNKSt3__122__compressed_pair_elemINS_9allocatorIiEELi1ELb1EE5__getB8ue170006Ev, symObjAddr: 0x1D18, symBinAddr: 0x100004394, symSize: 0x14 }
  - { offsetInCU: 0x10EB1, offset: 0x1549C, size: 0x8, addend: 0x0, symName: __ZNSt3__117__compressed_pairIPiNS_9allocatorIiEEEC2B8ue170006IDnS3_EEOT_OT0_, symObjAddr: 0x1D2C, symBinAddr: 0x1000043A8, symSize: 0x44 }
  - { offsetInCU: 0x10F07, offset: 0x154F2, size: 0x8, addend: 0x0, symName: __ZNSt3__122__compressed_pair_elemINS_9allocatorIiEELi1ELb1EEC2B8ue170006IS2_vEEOT_, symObjAddr: 0x1D70, symBinAddr: 0x1000043EC, symSize: 0x18 }
  - { offsetInCU: 0x10F47, offset: 0x15532, size: 0x8, addend: 0x0, symName: __ZNSt3__16vectorIiNS_9allocatorIiEEE11__vallocateB8ue170006Em, symObjAddr: 0x1DC8, symBinAddr: 0x100004444, symSize: 0xAC }
  - { offsetInCU: 0x10F89, offset: 0x15574, size: 0x8, addend: 0x0, symName: __ZNSt3__16vectorIiNS_9allocatorIiEEE18__construct_at_endIPiS5_EEvT_T0_m, symObjAddr: 0x1E74, symBinAddr: 0x1000044F0, symSize: 0x8C }
  - { offsetInCU: 0x10FFE, offset: 0x155E9, size: 0x8, addend: 0x0, symName: __ZNSt3__128__exception_guard_exceptionsINS_6vectorIiNS_9allocatorIiEEE16__destroy_vectorEE10__completeB8ue170006Ev, symObjAddr: 0x1F00, symBinAddr: 0x10000457C, symSize: 0x1C }
  - { offsetInCU: 0x11022, offset: 0x1560D, size: 0x8, addend: 0x0, symName: __ZNSt3__128__exception_guard_exceptionsINS_6vectorIiNS_9allocatorIiEEE16__destroy_vectorEED1B8ue170006Ev, symObjAddr: 0x1F1C, symBinAddr: 0x100004598, symSize: 0x2C }
  - { offsetInCU: 0x1104A, offset: 0x15635, size: 0x8, addend: 0x0, symName: __ZNSt3__128__exception_guard_exceptionsINS_6vectorIiNS_9allocatorIiEEE16__destroy_vectorEEC1B8ue170006ES5_, symObjAddr: 0x1F48, symBinAddr: 0x1000045C4, symSize: 0x34 }
  - { offsetInCU: 0x11080, offset: 0x1566B, size: 0x8, addend: 0x0, symName: __ZNSt3__128__exception_guard_exceptionsINS_6vectorIiNS_9allocatorIiEEE16__destroy_vectorEEC2B8ue170006ES5_, symObjAddr: 0x1F7C, symBinAddr: 0x1000045F8, symSize: 0x24 }
  - { offsetInCU: 0x110B6, offset: 0x156A1, size: 0x8, addend: 0x0, symName: __ZNKSt3__16vectorIiNS_9allocatorIiEEE8max_sizeEv, symObjAddr: 0x1FA0, symBinAddr: 0x10000461C, symSize: 0x60 }
  - { offsetInCU: 0x110DD, offset: 0x156C8, size: 0x8, addend: 0x0, symName: __ZNKSt3__16vectorIiNS_9allocatorIiEEE20__throw_length_errorB8ue170006Ev, symObjAddr: 0x2000, symBinAddr: 0x10000467C, symSize: 0x1C }
  - { offsetInCU: 0x11101, offset: 0x156EC, size: 0x8, addend: 0x0, symName: __ZNSt3__16vectorIiNS_9allocatorIiEEE9__end_capB8ue170006Ev, symObjAddr: 0x205C, symBinAddr: 0x1000046D8, symSize: 0x28 }
  - { offsetInCU: 0x11125, offset: 0x15710, size: 0x8, addend: 0x0, symName: __ZNKSt3__16vectorIiNS_9allocatorIiEEE14__annotate_newB8ue170006Em, symObjAddr: 0x2084, symBinAddr: 0x100004700, symSize: 0xAC }
  - { offsetInCU: 0x11158, offset: 0x15743, size: 0x8, addend: 0x0, symName: __ZNSt3__116allocator_traitsINS_9allocatorIiEEE8max_sizeB8ue170006IS2_vEEmRKS2_, symObjAddr: 0x215C, symBinAddr: 0x1000047D8, symSize: 0x24 }
  - { offsetInCU: 0x11185, offset: 0x15770, size: 0x8, addend: 0x0, symName: __ZNSt3__114numeric_limitsIlE3maxB8ue170006Ev, symObjAddr: 0x2180, symBinAddr: 0x1000047FC, symSize: 0x14 }
  - { offsetInCU: 0x111A8, offset: 0x15793, size: 0x8, addend: 0x0, symName: __ZNKSt3__16__lessIvvEclB8ue170006ImmEEbRKT_RKT0_, symObjAddr: 0x21E8, symBinAddr: 0x100004864, symSize: 0x34 }
  - { offsetInCU: 0x111FA, offset: 0x157E5, size: 0x8, addend: 0x0, symName: __ZNKSt3__19allocatorIiE8max_sizeB8ue170006Ev, symObjAddr: 0x221C, symBinAddr: 0x100004898, symSize: 0x14 }
  - { offsetInCU: 0x1121E, offset: 0x15809, size: 0x8, addend: 0x0, symName: __ZNSt3__123__libcpp_numeric_limitsIlLb1EE3maxB8ue170006Ev, symObjAddr: 0x2230, symBinAddr: 0x1000048AC, symSize: 0x8 }
  - { offsetInCU: 0x11232, offset: 0x1581D, size: 0x8, addend: 0x0, symName: __ZNSt12length_errorC1B8ue170006EPKc, symObjAddr: 0x229C, symBinAddr: 0x100004918, symSize: 0x34 }
  - { offsetInCU: 0x11268, offset: 0x15853, size: 0x8, addend: 0x0, symName: __ZNSt12length_errorC2B8ue170006EPKc, symObjAddr: 0x22D0, symBinAddr: 0x10000494C, symSize: 0x4C }
  - { offsetInCU: 0x1129E, offset: 0x15889, size: 0x8, addend: 0x0, symName: __ZNSt3__19allocatorIiE8allocateB8ue170006Em, symObjAddr: 0x231C, symBinAddr: 0x100004998, symSize: 0x58 }
  - { offsetInCU: 0x112D0, offset: 0x158BB, size: 0x8, addend: 0x0, symName: __ZNSt3__117__compressed_pairIPiNS_9allocatorIiEEE5firstB8ue170006Ev, symObjAddr: 0x23F4, symBinAddr: 0x100004A70, symSize: 0x24 }
  - { offsetInCU: 0x112F4, offset: 0x158DF, size: 0x8, addend: 0x0, symName: __ZNSt3__122__compressed_pair_elemIPiLi0ELb0EE5__getB8ue170006Ev, symObjAddr: 0x2418, symBinAddr: 0x100004A94, symSize: 0x14 }
  - { offsetInCU: 0x11331, offset: 0x1591C, size: 0x8, addend: 0x0, symName: __ZNSt3__16vectorIiNS_9allocatorIiEEE21_ConstructTransactionC1B8ue170006ERS3_m, symObjAddr: 0x242C, symBinAddr: 0x100004AA8, symSize: 0x3C }
  - { offsetInCU: 0x11377, offset: 0x15962, size: 0x8, addend: 0x0, symName: __ZNSt3__16vectorIiNS_9allocatorIiEEE21_ConstructTransactionD1B8ue170006Ev, symObjAddr: 0x24E8, symBinAddr: 0x100004B64, symSize: 0x2C }
  - { offsetInCU: 0x1139F, offset: 0x1598A, size: 0x8, addend: 0x0, symName: __ZNSt3__16vectorIiNS_9allocatorIiEEE21_ConstructTransactionC2B8ue170006ERS3_m, symObjAddr: 0x2514, symBinAddr: 0x100004B90, symSize: 0x44 }
  - { offsetInCU: 0x11403, offset: 0x159EE, size: 0x8, addend: 0x0, symName: __ZNSt3__14pairIPiS1_EC1B8ue170006IS1_S1_LPv0EEEOT_OT0_, symObjAddr: 0x2688, symBinAddr: 0x100004D04, symSize: 0x3C }
  - { offsetInCU: 0x11460, offset: 0x15A4B, size: 0x8, addend: 0x0, symName: __ZNSt3__14pairIPiS1_EC2B8ue170006IS1_S1_LPv0EEEOT_OT0_, symObjAddr: 0x26C4, symBinAddr: 0x100004D40, symSize: 0x34 }
  - { offsetInCU: 0x114C7, offset: 0x15AB2, size: 0x8, addend: 0x0, symName: __ZNKSt3__114__copy_trivialclB8ue170006IiiLi0EEENS_4pairIPT_PT0_EES4_S4_S6_, symObjAddr: 0x2874, symBinAddr: 0x100004EF0, symSize: 0x48 }
  - { offsetInCU: 0x1152E, offset: 0x15B19, size: 0x8, addend: 0x0, symName: __ZNSt3__14pairIPiS1_EC1B8ue170006IRS1_S1_LPv0EEEOT_OT0_, symObjAddr: 0x2A04, symBinAddr: 0x100005080, symSize: 0x3C }
  - { offsetInCU: 0x1158B, offset: 0x15B76, size: 0x8, addend: 0x0, symName: __ZNSt3__14pairIPiS1_EC2B8ue170006IRS1_S1_LPv0EEEOT_OT0_, symObjAddr: 0x2A40, symBinAddr: 0x1000050BC, symSize: 0x34 }
  - { offsetInCU: 0x115E8, offset: 0x15BD3, size: 0x8, addend: 0x0, symName: __ZNSt3__118__unwrap_iter_implIPiLb1EE8__unwrapB8ue170006ES1_, symObjAddr: 0x2A74, symBinAddr: 0x1000050F0, symSize: 0x24 }
  - { offsetInCU: 0x1160A, offset: 0x15BF5, size: 0x8, addend: 0x0, symName: __ZNSt3__118__unwrap_iter_implIPiLb1EE8__rewrapB8ue170006ES1_S1_, symObjAddr: 0x2A98, symBinAddr: 0x100005114, symSize: 0x50 }
  - { offsetInCU: 0x1163A, offset: 0x15C25, size: 0x8, addend: 0x0, symName: __ZNSt3__16vectorIiNS_9allocatorIiEEE21_ConstructTransactionD2B8ue170006Ev, symObjAddr: 0x2AE8, symBinAddr: 0x100005164, symSize: 0x20 }
  - { offsetInCU: 0x11662, offset: 0x15C4D, size: 0x8, addend: 0x0, symName: __ZNSt3__128__exception_guard_exceptionsINS_6vectorIiNS_9allocatorIiEEE16__destroy_vectorEED2B8ue170006Ev, symObjAddr: 0x2B08, symBinAddr: 0x100005184, symSize: 0x48 }
  - { offsetInCU: 0x1168A, offset: 0x15C75, size: 0x8, addend: 0x0, symName: __ZNSt3__16vectorIiNS_9allocatorIiEEEC2Em, symObjAddr: 0x2B50, symBinAddr: 0x1000051CC, symSize: 0xD4 }
  - { offsetInCU: 0x116D9, offset: 0x15CC4, size: 0x8, addend: 0x0, symName: __ZNSt3__16vectorIiNS_9allocatorIiEEE18__construct_at_endEm, symObjAddr: 0x2C24, symBinAddr: 0x1000052A0, symSize: 0xC8 }
  - { offsetInCU: 0x1174B, offset: 0x15D36, size: 0x8, addend: 0x0, symName: __ZNSt3__116allocator_traitsINS_9allocatorIiEEE9constructB8ue170006IiJEvEEvRS2_PT_DpOT0_, symObjAddr: 0x2CEC, symBinAddr: 0x100005368, symSize: 0x2C }
  - { offsetInCU: 0x1178C, offset: 0x15D77, size: 0x8, addend: 0x0, symName: __ZNSt3__19allocatorIiE9constructB8ue170006IiJEEEvPT_DpOT0_, symObjAddr: 0x2D18, symBinAddr: 0x100005394, symSize: 0x1C }
  - { offsetInCU: 0x117CC, offset: 0x15DB7, size: 0x8, addend: 0x0, symName: __ZNSt3__16vectorIiNS_9allocatorIiEEEC2EmRKi, symObjAddr: 0x2D34, symBinAddr: 0x1000053B0, symSize: 0xDC }
  - { offsetInCU: 0x1182A, offset: 0x15E15, size: 0x8, addend: 0x0, symName: __ZNSt3__16vectorIiNS_9allocatorIiEEE18__construct_at_endEmRKi, symObjAddr: 0x2E10, symBinAddr: 0x10000548C, symSize: 0xD0 }
  - { offsetInCU: 0x118AB, offset: 0x15E96, size: 0x8, addend: 0x0, symName: __ZNSt3__116allocator_traitsINS_9allocatorIiEEE9constructB8ue170006IiJRKiEvEEvRS2_PT_DpOT0_, symObjAddr: 0x2EE0, symBinAddr: 0x10000555C, symSize: 0x34 }
  - { offsetInCU: 0x11901, offset: 0x15EEC, size: 0x8, addend: 0x0, symName: __ZNSt3__19allocatorIiE9constructB8ue170006IiJRKiEEEvPT_DpOT0_, symObjAddr: 0x2F14, symBinAddr: 0x100005590, symSize: 0x28 }
  - { offsetInCU: 0x11955, offset: 0x15F40, size: 0x8, addend: 0x0, symName: __ZNSt3__111char_traitsIcE6lengthB8ue170006EPKc, symObjAddr: 0x3128, symBinAddr: 0x1000057A4, symSize: 0x34 }
  - { offsetInCU: 0x11995, offset: 0x15F80, size: 0x8, addend: 0x0, symName: __ZNKSt3__113basic_ostreamIcNS_11char_traitsIcEEE6sentrycvbB8ue170006Ev, symObjAddr: 0x315C, symBinAddr: 0x1000057D8, symSize: 0x1C }
  - { offsetInCU: 0x119B9, offset: 0x15FA4, size: 0x8, addend: 0x0, symName: __ZNSt3__119ostreambuf_iteratorIcNS_11char_traitsIcEEEC1B8ue170006ERNS_13basic_ostreamIcS2_EE, symObjAddr: 0x33B8, symBinAddr: 0x100005A34, symSize: 0x34 }
  - { offsetInCU: 0x119EF, offset: 0x15FDA, size: 0x8, addend: 0x0, symName: __ZNKSt3__18ios_base5flagsB8ue170006Ev, symObjAddr: 0x33EC, symBinAddr: 0x100005A68, symSize: 0x18 }
  - { offsetInCU: 0x11A15, offset: 0x16000, size: 0x8, addend: 0x0, symName: __ZNKSt3__19basic_iosIcNS_11char_traitsIcEEE4fillB8ue170006Ev, symObjAddr: 0x3404, symBinAddr: 0x100005A80, symSize: 0x64 }
  - { offsetInCU: 0x11A3C, offset: 0x16027, size: 0x8, addend: 0x0, symName: __ZNKSt3__119ostreambuf_iteratorIcNS_11char_traitsIcEEE6failedB8ue170006Ev, symObjAddr: 0x3468, symBinAddr: 0x100005AE4, symSize: 0x24 }
  - { offsetInCU: 0x11A60, offset: 0x1604B, size: 0x8, addend: 0x0, symName: __ZNSt3__19basic_iosIcNS_11char_traitsIcEEE8setstateB8ue170006Ej, symObjAddr: 0x348C, symBinAddr: 0x100005B08, symSize: 0x2C }
  - { offsetInCU: 0x11A93, offset: 0x1607E, size: 0x8, addend: 0x0, symName: __ZNKSt3__18ios_base5widthB8ue170006Ev, symObjAddr: 0x34B8, symBinAddr: 0x100005B34, symSize: 0x18 }
  - { offsetInCU: 0x11AB9, offset: 0x160A4, size: 0x8, addend: 0x0, symName: __ZNSt3__115basic_streambufIcNS_11char_traitsIcEEE5sputnB8ue170006EPKcl, symObjAddr: 0x34D0, symBinAddr: 0x100005B4C, symSize: 0x3C }
  - { offsetInCU: 0x11AF9, offset: 0x160E4, size: 0x8, addend: 0x0, symName: __ZNSt3__112basic_stringIcNS_11char_traitsIcEENS_9allocatorIcEEEC1B8ue170006Emc, symObjAddr: 0x350C, symBinAddr: 0x100005B88, symSize: 0x3C }
  - { offsetInCU: 0x11B3F, offset: 0x1612A, size: 0x8, addend: 0x0, symName: __ZNKSt3__112basic_stringIcNS_11char_traitsIcEENS_9allocatorIcEEE4dataB8ue170006Ev, symObjAddr: 0x3548, symBinAddr: 0x100005BC4, symSize: 0x28 }
  - { offsetInCU: 0x11B63, offset: 0x1614E, size: 0x8, addend: 0x0, symName: __ZNSt3__18ios_base5widthB8ue170006El, symObjAddr: 0x3570, symBinAddr: 0x100005BEC, symSize: 0x2C }
  - { offsetInCU: 0x11BA7, offset: 0x16192, size: 0x8, addend: 0x0, symName: __ZNSt3__112basic_stringIcNS_11char_traitsIcEENS_9allocatorIcEEEC2B8ue170006Emc, symObjAddr: 0x359C, symBinAddr: 0x100005C18, symSize: 0x4C }
  - { offsetInCU: 0x11BED, offset: 0x161D8, size: 0x8, addend: 0x0, symName: __ZNSt3__117__compressed_pairINS_12basic_stringIcNS_11char_traitsIcEENS_9allocatorIcEEE5__repES5_EC1B8ue170006INS_18__default_init_tagESA_EEOT_OT0_, symObjAddr: 0x35E8, symBinAddr: 0x100005C64, symSize: 0x3C }
  - { offsetInCU: 0x11C43, offset: 0x1622E, size: 0x8, addend: 0x0, symName: __ZNSt3__117__compressed_pairINS_12basic_stringIcNS_11char_traitsIcEENS_9allocatorIcEEE5__repES5_EC2B8ue170006INS_18__default_init_tagESA_EEOT_OT0_, symObjAddr: 0x3624, symBinAddr: 0x100005CA0, symSize: 0x3C }
  - { offsetInCU: 0x11C99, offset: 0x16284, size: 0x8, addend: 0x0, symName: __ZNSt3__122__compressed_pair_elemINS_12basic_stringIcNS_11char_traitsIcEENS_9allocatorIcEEE5__repELi0ELb0EEC2B8ue170006ENS_18__default_init_tagE, symObjAddr: 0x3660, symBinAddr: 0x100005CDC, symSize: 0x14 }
  - { offsetInCU: 0x11CCC, offset: 0x162B7, size: 0x8, addend: 0x0, symName: __ZNSt3__122__compressed_pair_elemINS_9allocatorIcEELi1ELb1EEC2B8ue170006ENS_18__default_init_tagE, symObjAddr: 0x3674, symBinAddr: 0x100005CF0, symSize: 0x2C }
  - { offsetInCU: 0x11CFF, offset: 0x162EA, size: 0x8, addend: 0x0, symName: __ZNSt3__19allocatorIcEC2B8ue170006Ev, symObjAddr: 0x36A0, symBinAddr: 0x100005D1C, symSize: 0x2C }
  - { offsetInCU: 0x11D27, offset: 0x16312, size: 0x8, addend: 0x0, symName: __ZNSt3__116__non_trivial_ifILb1ENS_9allocatorIcEEEC2B8ue170006Ev, symObjAddr: 0x36CC, symBinAddr: 0x100005D48, symSize: 0x14 }
  - { offsetInCU: 0x11D4F, offset: 0x1633A, size: 0x8, addend: 0x0, symName: __ZNKSt3__112basic_stringIcNS_11char_traitsIcEENS_9allocatorIcEEE13__get_pointerB8ue170006Ev, symObjAddr: 0x36F4, symBinAddr: 0x100005D70, symSize: 0x54 }
  - { offsetInCU: 0x11D73, offset: 0x1635E, size: 0x8, addend: 0x0, symName: __ZNKSt3__112basic_stringIcNS_11char_traitsIcEENS_9allocatorIcEEE9__is_longB8ue170006Ev, symObjAddr: 0x3748, symBinAddr: 0x100005DC4, symSize: 0x38 }
  - { offsetInCU: 0x11D97, offset: 0x16382, size: 0x8, addend: 0x0, symName: __ZNKSt3__112basic_stringIcNS_11char_traitsIcEENS_9allocatorIcEEE18__get_long_pointerB8ue170006Ev, symObjAddr: 0x3780, symBinAddr: 0x100005DFC, symSize: 0x28 }
  - { offsetInCU: 0x11DBB, offset: 0x163A6, size: 0x8, addend: 0x0, symName: __ZNKSt3__112basic_stringIcNS_11char_traitsIcEENS_9allocatorIcEEE19__get_short_pointerB8ue170006Ev, symObjAddr: 0x37A8, symBinAddr: 0x100005E24, symSize: 0x28 }
  - { offsetInCU: 0x11DDF, offset: 0x163CA, size: 0x8, addend: 0x0, symName: __ZNKSt3__117__compressed_pairINS_12basic_stringIcNS_11char_traitsIcEENS_9allocatorIcEEE5__repES5_E5firstB8ue170006Ev, symObjAddr: 0x37D0, symBinAddr: 0x100005E4C, symSize: 0x24 }
  - { offsetInCU: 0x11E03, offset: 0x163EE, size: 0x8, addend: 0x0, symName: __ZNKSt3__122__compressed_pair_elemINS_12basic_stringIcNS_11char_traitsIcEENS_9allocatorIcEEE5__repELi0ELb0EE5__getB8ue170006Ev, symObjAddr: 0x37F4, symBinAddr: 0x100005E70, symSize: 0x14 }
  - { offsetInCU: 0x11E27, offset: 0x16412, size: 0x8, addend: 0x0, symName: __ZNSt3__114pointer_traitsIPKcE10pointer_toB8ue170006ERS1_, symObjAddr: 0x3808, symBinAddr: 0x100005E84, symSize: 0x14 }
  - { offsetInCU: 0x11E4A, offset: 0x16435, size: 0x8, addend: 0x0, symName: __ZNSt3__119ostreambuf_iteratorIcNS_11char_traitsIcEEEC2B8ue170006ERNS_13basic_ostreamIcS2_EE, symObjAddr: 0x381C, symBinAddr: 0x100005E98, symSize: 0x54 }
  - { offsetInCU: 0x11E80, offset: 0x1646B, size: 0x8, addend: 0x0, symName: __ZNKSt3__19basic_iosIcNS_11char_traitsIcEEE5rdbufB8ue170006Ev, symObjAddr: 0x3870, symBinAddr: 0x100005EEC, symSize: 0x24 }
  - { offsetInCU: 0x11EA7, offset: 0x16492, size: 0x8, addend: 0x0, symName: __ZNKSt3__18ios_base5rdbufB8ue170006Ev, symObjAddr: 0x3894, symBinAddr: 0x100005F10, symSize: 0x18 }
  - { offsetInCU: 0x11ECB, offset: 0x164B6, size: 0x8, addend: 0x0, symName: __ZNSt3__111char_traitsIcE11eq_int_typeB8ue170006Eii, symObjAddr: 0x38AC, symBinAddr: 0x100005F28, symSize: 0x28 }
  - { offsetInCU: 0x11EFE, offset: 0x164E9, size: 0x8, addend: 0x0, symName: __ZNSt3__111char_traitsIcE3eofB8ue170006Ev, symObjAddr: 0x38D4, symBinAddr: 0x100005F50, symSize: 0x8 }
  - { offsetInCU: 0x11F12, offset: 0x164FD, size: 0x8, addend: 0x0, symName: __ZNKSt3__19basic_iosIcNS_11char_traitsIcEEE5widenB8ue170006Ec, symObjAddr: 0x38DC, symBinAddr: 0x100005F58, symSize: 0x84 }
  - { offsetInCU: 0x11F7A, offset: 0x16565, size: 0x8, addend: 0x0, symName: __ZNKSt3__15ctypeIcE5widenB8ue170006Ec, symObjAddr: 0x398C, symBinAddr: 0x100006008, symSize: 0x38 }
  - { offsetInCU: 0x11FAD, offset: 0x16598, size: 0x8, addend: 0x0, symName: __ZNSt3__18ios_base8setstateB8ue170006Ej, symObjAddr: 0x39C4, symBinAddr: 0x100006040, symSize: 0x34 }
  - { offsetInCU: 0x11FE3, offset: 0x165CE, size: 0x8, addend: 0x0, symName: '__ZNSt3__18functionIFiiEEC2IZNK6Matrix3addEiE3$_0vEET_', symObjAddr: 0x3A1C, symBinAddr: 0x100006098, symSize: 0x38 }
  - { offsetInCU: 0x12027, offset: 0x16612, size: 0x8, addend: 0x0, symName: '__ZNSt3__110__function12__value_funcIFiiEEC1B8ue170006IZNK6Matrix3addEiE3$_0vEEOT_', symObjAddr: 0x3A54, symBinAddr: 0x1000060D0, symSize: 0x50 }
  - { offsetInCU: 0x12068, offset: 0x16653, size: 0x8, addend: 0x0, symName: '__ZNSt3__19allocatorIZNK6Matrix3addEiE3$_0EC1B8ue170006Ev', symObjAddr: 0x3AA4, symBinAddr: 0x100006120, symSize: 0x2C }
  - { offsetInCU: 0x12090, offset: 0x1667B, size: 0x8, addend: 0x0, symName: '__ZNSt3__110__function12__value_funcIFiiEEC1B8ue170006IZNK6Matrix3addEiE3$_0NS_9allocatorIS6_EEEEOT_RKT0_', symObjAddr: 0x3AD0, symBinAddr: 0x10000614C, symSize: 0x3C }
  - { offsetInCU: 0x120E8, offset: 0x166D3, size: 0x8, addend: 0x0, symName: '__ZNSt3__19allocatorIZNK6Matrix3addEiE3$_0EC2B8ue170006Ev', symObjAddr: 0x3B0C, symBinAddr: 0x100006188, symSize: 0x2C }
  - { offsetInCU: 0x12110, offset: 0x166FB, size: 0x8, addend: 0x0, symName: '__ZNSt3__116__non_trivial_ifILb1ENS_9allocatorIZNK6Matrix3addEiE3$_0EEEC2B8ue170006Ev', symObjAddr: 0x3B38, symBinAddr: 0x1000061B4, symSize: 0x14 }
  - { offsetInCU: 0x12138, offset: 0x16723, size: 0x8, addend: 0x0, symName: '__ZNSt3__110__function12__value_funcIFiiEEC2B8ue170006IZNK6Matrix3addEiE3$_0NS_9allocatorIS6_EEEEOT_RKT0_', symObjAddr: 0x3B4C, symBinAddr: 0x1000061C8, symSize: 0x94 }
  - { offsetInCU: 0x121DD, offset: 0x167C8, size: 0x8, addend: 0x0, symName: '__ZNSt3__19allocatorINS_10__function6__funcIZNK6Matrix3addEiE3$_0NS0_IS4_EEFiiEEEEC1B8ue170006IS4_EERKNS0_IT_EE', symObjAddr: 0x3BF8, symBinAddr: 0x100006274, symSize: 0x34 }
  - { offsetInCU: 0x1221E, offset: 0x16809, size: 0x8, addend: 0x0, symName: '__ZNSt3__19allocatorIZNK6Matrix3addEiE3$_0EC1B8ue170006INS_10__function6__funcIS2_S3_FiiEEEEERKNS0_IT_EE', symObjAddr: 0x3C2C, symBinAddr: 0x1000062A8, symSize: 0x34 }
  - { offsetInCU: 0x1225A, offset: 0x16845, size: 0x8, addend: 0x0, symName: '__ZNSt3__110__function6__funcIZNK6Matrix3addEiE3$_0NS_9allocatorIS3_EEFiiEEC1B8ue170006EOS3_OS5_', symObjAddr: 0x3C60, symBinAddr: 0x1000062DC, symSize: 0x3C }
  - { offsetInCU: 0x122A0, offset: 0x1688B, size: 0x8, addend: 0x0, symName: '__ZNSt3__19allocatorINS_10__function6__funcIZNK6Matrix3addEiE3$_0NS0_IS4_EEFiiEEEEC2B8ue170006IS4_EERKNS0_IT_EE', symObjAddr: 0x3C9C, symBinAddr: 0x100006318, symSize: 0x30 }
  - { offsetInCU: 0x122DC, offset: 0x168C7, size: 0x8, addend: 0x0, symName: '__ZNSt3__116__non_trivial_ifILb1ENS_9allocatorINS_10__function6__funcIZNK6Matrix3addEiE3$_0NS1_IS5_EEFiiEEEEEEC2B8ue170006Ev', symObjAddr: 0x3CCC, symBinAddr: 0x100006348, symSize: 0x14 }
  - { offsetInCU: 0x12304, offset: 0x168EF, size: 0x8, addend: 0x0, symName: '__ZNSt3__19allocatorIZNK6Matrix3addEiE3$_0EC2B8ue170006INS_10__function6__funcIS2_S3_FiiEEEEERKNS0_IT_EE', symObjAddr: 0x3CE0, symBinAddr: 0x10000635C, symSize: 0x30 }
  - { offsetInCU: 0x12340, offset: 0x1692B, size: 0x8, addend: 0x0, symName: '__ZNSt3__110__function6__funcIZNK6Matrix3addEiE3$_0NS_9allocatorIS3_EEFiiEEC2B8ue170006EOS3_OS5_', symObjAddr: 0x3D10, symBinAddr: 0x10000638C, symSize: 0x88 }
  - { offsetInCU: 0x12386, offset: 0x16971, size: 0x8, addend: 0x0, symName: __ZNSt3__110__function6__baseIFiiEEC2B8ue170006Ev, symObjAddr: 0x3D98, symBinAddr: 0x100006414, symSize: 0x24 }
  - { offsetInCU: 0x123AE, offset: 0x16999, size: 0x8, addend: 0x0, symName: '__ZNSt3__110__function12__alloc_funcIZNK6Matrix3addEiE3$_0NS_9allocatorIS3_EEFiiEEC1B8ue170006EOS3_OS5_', symObjAddr: 0x3DBC, symBinAddr: 0x100006438, symSize: 0x3C }
  - { offsetInCU: 0x123F2, offset: 0x169DD, size: 0x8, addend: 0x0, symName: __ZNSt3__110__function6__baseIFiiEED2Ev, symObjAddr: 0x3DF8, symBinAddr: 0x100006474, symSize: 0x14 }
  - { offsetInCU: 0x1241A, offset: 0x16A05, size: 0x8, addend: 0x0, symName: '__ZNSt3__110__function6__funcIZNK6Matrix3addEiE3$_0NS_9allocatorIS3_EEFiiEED1Ev', symObjAddr: 0x3E0C, symBinAddr: 0x100006488, symSize: 0x2C }
  - { offsetInCU: 0x12446, offset: 0x16A31, size: 0x8, addend: 0x0, symName: '__ZNSt3__110__function6__funcIZNK6Matrix3addEiE3$_0NS_9allocatorIS3_EEFiiEED0Ev', symObjAddr: 0x3E38, symBinAddr: 0x1000064B4, symSize: 0x30 }
  - { offsetInCU: 0x12472, offset: 0x16A5D, size: 0x8, addend: 0x0, symName: '__ZNKSt3__110__function6__funcIZNK6Matrix3addEiE3$_0NS_9allocatorIS3_EEFiiEE7__cloneEv', symObjAddr: 0x3E68, symBinAddr: 0x1000064E4, symSize: 0xFC }
  - { offsetInCU: 0x124C3, offset: 0x16AAE, size: 0x8, addend: 0x0, symName: '__ZNKSt3__110__function6__funcIZNK6Matrix3addEiE3$_0NS_9allocatorIS3_EEFiiEE7__cloneEPNS0_6__baseIS6_EE', symObjAddr: 0x3F64, symBinAddr: 0x1000065E0, symSize: 0x58 }
  - { offsetInCU: 0x124F9, offset: 0x16AE4, size: 0x8, addend: 0x0, symName: '__ZNSt3__110__function6__funcIZNK6Matrix3addEiE3$_0NS_9allocatorIS3_EEFiiEE7destroyEv', symObjAddr: 0x3FBC, symBinAddr: 0x100006638, symSize: 0x28 }
  - { offsetInCU: 0x12520, offset: 0x16B0B, size: 0x8, addend: 0x0, symName: '__ZNSt3__110__function6__funcIZNK6Matrix3addEiE3$_0NS_9allocatorIS3_EEFiiEE18destroy_deallocateEv', symObjAddr: 0x3FE4, symBinAddr: 0x100006660, symSize: 0x58 }
  - { offsetInCU: 0x12562, offset: 0x16B4D, size: 0x8, addend: 0x0, symName: '__ZNSt3__110__function6__funcIZNK6Matrix3addEiE3$_0NS_9allocatorIS3_EEFiiEEclEOi', symObjAddr: 0x403C, symBinAddr: 0x1000066B8, symSize: 0x30 }
  - { offsetInCU: 0x12598, offset: 0x16B83, size: 0x8, addend: 0x0, symName: '__ZNKSt3__110__function6__funcIZNK6Matrix3addEiE3$_0NS_9allocatorIS3_EEFiiEE6targetERKSt9type_info', symObjAddr: 0x406C, symBinAddr: 0x1000066E8, symSize: 0x60 }
  - { offsetInCU: 0x125CE, offset: 0x16BB9, size: 0x8, addend: 0x0, symName: '__ZNKSt3__110__function6__funcIZNK6Matrix3addEiE3$_0NS_9allocatorIS3_EEFiiEE11target_typeEv', symObjAddr: 0x40CC, symBinAddr: 0x100006748, symSize: 0x18 }
  - { offsetInCU: 0x125F4, offset: 0x16BDF, size: 0x8, addend: 0x0, symName: __ZNSt3__110__function6__baseIFiiEED1Ev, symObjAddr: 0x40E4, symBinAddr: 0x100006760, symSize: 0x14 }
  - { offsetInCU: 0x1261C, offset: 0x16C07, size: 0x8, addend: 0x0, symName: __ZNSt3__110__function6__baseIFiiEED0Ev, symObjAddr: 0x40F8, symBinAddr: 0x100006774, symSize: 0xC }
  - { offsetInCU: 0x12644, offset: 0x16C2F, size: 0x8, addend: 0x0, symName: '__ZNSt3__110__function12__alloc_funcIZNK6Matrix3addEiE3$_0NS_9allocatorIS3_EEFiiEEC2B8ue170006EOS3_OS5_', symObjAddr: 0x4104, symBinAddr: 0x100006780, symSize: 0x5C }
  - { offsetInCU: 0x12688, offset: 0x16C73, size: 0x8, addend: 0x0, symName: '__ZNSt3__117__compressed_pairIZNK6Matrix3addEiE3$_0NS_9allocatorIS2_EEEC1B8ue170006IJOS2_EJOS4_EEENS_21piecewise_construct_tENS_5tupleIJDpT_EEENSA_IJDpT0_EEE', symObjAddr: 0x41B8, symBinAddr: 0x100006834, symSize: 0x3C }
  - { offsetInCU: 0x126F0, offset: 0x16CDB, size: 0x8, addend: 0x0, symName: '__ZNSt3__15tupleIJOZNK6Matrix3addEiE3$_0EEC1B8ue170006IJS2_ELi0EEEDpOT_', symObjAddr: 0x41F4, symBinAddr: 0x100006870, symSize: 0x34 }
  - { offsetInCU: 0x12739, offset: 0x16D24, size: 0x8, addend: 0x0, symName: '__ZNSt3__15tupleIJOZNK6Matrix3addEiE3$_0EEC2B8ue170006IJS2_ELi0EEEDpOT_', symObjAddr: 0x4228, symBinAddr: 0x1000068A4, symSize: 0x34 }
  - { offsetInCU: 0x12782, offset: 0x16D6D, size: 0x8, addend: 0x0, symName: '__ZNSt3__112__tuple_implINS_15__tuple_indicesIJLm0EEEEJOZNK6Matrix3addEiE3$_0EEC1B8ue170006IJLm0EEJS5_EJEJEJS4_EEENS1_IJXspT_EEEENS_13__tuple_typesIJDpT0_EEENS1_IJXspT1_EEEENS9_IJDpT2_EEEDpOT3_', symObjAddr: 0x425C, symBinAddr: 0x1000068D8, symSize: 0x34 }
  - { offsetInCU: 0x12812, offset: 0x16DFD, size: 0x8, addend: 0x0, symName: '__ZNSt3__112__tuple_implINS_15__tuple_indicesIJLm0EEEEJOZNK6Matrix3addEiE3$_0EEC2B8ue170006IJLm0EEJS5_EJEJEJS4_EEENS1_IJXspT_EEEENS_13__tuple_typesIJDpT0_EEENS1_IJXspT1_EEEENS9_IJDpT2_EEEDpOT3_', symObjAddr: 0x4290, symBinAddr: 0x10000690C, symSize: 0x34 }
  - { offsetInCU: 0x128A2, offset: 0x16E8D, size: 0x8, addend: 0x0, symName: '__ZNSt3__112__tuple_leafILm0EOZNK6Matrix3addEiE3$_0Lb0EEC2B8ue170006IS2_vEEOT_', symObjAddr: 0x42C4, symBinAddr: 0x100006940, symSize: 0x20 }
  - { offsetInCU: 0x128E3, offset: 0x16ECE, size: 0x8, addend: 0x0, symName: '__ZNSt3__15tupleIJONS_9allocatorIZNK6Matrix3addEiE3$_0EEEEC1B8ue170006IJS4_ELi0EEEDpOT_', symObjAddr: 0x42E4, symBinAddr: 0x100006960, symSize: 0x34 }
  - { offsetInCU: 0x1292C, offset: 0x16F17, size: 0x8, addend: 0x0, symName: '__ZNSt3__15tupleIJONS_9allocatorIZNK6Matrix3addEiE3$_0EEEEC2B8ue170006IJS4_ELi0EEEDpOT_', symObjAddr: 0x4318, symBinAddr: 0x100006994, symSize: 0x34 }
  - { offsetInCU: 0x12975, offset: 0x16F60, size: 0x8, addend: 0x0, symName: '__ZNSt3__112__tuple_implINS_15__tuple_indicesIJLm0EEEEJONS_9allocatorIZNK6Matrix3addEiE3$_0EEEEC1B8ue170006IJLm0EEJS7_EJEJEJS6_EEENS1_IJXspT_EEEENS_13__tuple_typesIJDpT0_EEENS1_IJXspT1_EEEENSB_IJDpT2_EEEDpOT3_', symObjAddr: 0x434C, symBinAddr: 0x1000069C8, symSize: 0x34 }
  - { offsetInCU: 0x12A05, offset: 0x16FF0, size: 0x8, addend: 0x0, symName: '__ZNSt3__112__tuple_implINS_15__tuple_indicesIJLm0EEEEJONS_9allocatorIZNK6Matrix3addEiE3$_0EEEEC2B8ue170006IJLm0EEJS7_EJEJEJS6_EEENS1_IJXspT_EEEENS_13__tuple_typesIJDpT0_EEENS1_IJXspT1_EEEENSB_IJDpT2_EEEDpOT3_', symObjAddr: 0x4380, symBinAddr: 0x1000069FC, symSize: 0x34 }
  - { offsetInCU: 0x12A95, offset: 0x17080, size: 0x8, addend: 0x0, symName: '__ZNSt3__112__tuple_leafILm0EONS_9allocatorIZNK6Matrix3addEiE3$_0EELb0EEC2B8ue170006IS4_vEEOT_', symObjAddr: 0x43B4, symBinAddr: 0x100006A30, symSize: 0x20 }
  - { offsetInCU: 0x12AD6, offset: 0x170C1, size: 0x8, addend: 0x0, symName: '__ZNSt3__117__compressed_pairIZNK6Matrix3addEiE3$_0NS_9allocatorIS2_EEEC2B8ue170006IJOS2_EJOS4_EEENS_21piecewise_construct_tENS_5tupleIJDpT_EEENSA_IJDpT0_EEE', symObjAddr: 0x43D4, symBinAddr: 0x100006A50, symSize: 0x54 }
  - { offsetInCU: 0x12B3E, offset: 0x17129, size: 0x8, addend: 0x0, symName: '__ZNSt3__122__compressed_pair_elemIZNK6Matrix3addEiE3$_0Li0ELb0EEC2B8ue170006IJOS2_EJLm0EEEENS_21piecewise_construct_tENS_5tupleIJDpT_EEENS_15__tuple_indicesIJXspT0_EEEE', symObjAddr: 0x4428, symBinAddr: 0x100006AA4, symSize: 0x44 }
  - { offsetInCU: 0x12BA2, offset: 0x1718D, size: 0x8, addend: 0x0, symName: '__ZNSt3__122__compressed_pair_elemINS_9allocatorIZNK6Matrix3addEiE3$_0EELi1ELb1EEC2B8ue170006IJOS4_EJLm0EEEENS_21piecewise_construct_tENS_5tupleIJDpT_EEENS_15__tuple_indicesIJXspT0_EEEE', symObjAddr: 0x446C, symBinAddr: 0x100006AE8, symSize: 0x38 }
  - { offsetInCU: 0x12C06, offset: 0x171F1, size: 0x8, addend: 0x0, symName: '__ZNSt3__112__tuple_leafILm0EOZNK6Matrix3addEiE3$_0Lb0EE3getB8ue170006Ev', symObjAddr: 0x44C8, symBinAddr: 0x100006B44, symSize: 0x18 }
  - { offsetInCU: 0x12C2A, offset: 0x17215, size: 0x8, addend: 0x0, symName: '__ZNSt3__112__tuple_leafILm0EONS_9allocatorIZNK6Matrix3addEiE3$_0EELb0EE3getB8ue170006Ev', symObjAddr: 0x4504, symBinAddr: 0x100006B80, symSize: 0x18 }
  - { offsetInCU: 0x12C4E, offset: 0x17239, size: 0x8, addend: 0x0, symName: '__ZNSt3__110__function6__funcIZNK6Matrix3addEiE3$_0NS_9allocatorIS3_EEFiiEED2Ev', symObjAddr: 0x451C, symBinAddr: 0x100006B98, symSize: 0x2C }
  - { offsetInCU: 0x12C7A, offset: 0x17265, size: 0x8, addend: 0x0, symName: '__ZNKSt3__110__function12__alloc_funcIZNK6Matrix3addEiE3$_0NS_9allocatorIS3_EEFiiEE15__get_allocatorB8ue170006Ev', symObjAddr: 0x4548, symBinAddr: 0x100006BC4, symSize: 0x24 }
  - { offsetInCU: 0x12C9E, offset: 0x17289, size: 0x8, addend: 0x0, symName: '__ZNSt3__19allocatorINS_10__function6__funcIZNK6Matrix3addEiE3$_0NS0_IS4_EEFiiEEEE8allocateB8ue170006Em', symObjAddr: 0x456C, symBinAddr: 0x100006BE8, symSize: 0x58 }
  - { offsetInCU: 0x12CDF, offset: 0x172CA, size: 0x8, addend: 0x0, symName: '__ZNSt3__122__allocator_destructorINS_9allocatorINS_10__function6__funcIZNK6Matrix3addEiE3$_0NS1_IS5_EEFiiEEEEEEC1B8ue170006ERS9_m', symObjAddr: 0x45C4, symBinAddr: 0x100006C40, symSize: 0x3C }
  - { offsetInCU: 0x12DAF, offset: 0x1739A, size: 0x8, addend: 0x0, symName: '__ZNSt3__110unique_ptrINS_10__function6__funcIZNK6Matrix3addEiE3$_0NS_9allocatorIS4_EEFiiEEENS_22__allocator_destructorINS5_IS8_EEEEEC1B8ue170006ILb1EvEEPS8_NS_16__dependent_typeINS_27__unique_ptr_deleter_sfinaeISB_EEXT_EE20__good_rval_ref_typeE', symObjAddr: 0x4600, symBinAddr: 0x100006C7C, symSize: 0x3C }
  - { offsetInCU: 0x12DFE, offset: 0x173E9, size: 0x8, addend: 0x0, symName: '__ZNKSt3__110unique_ptrINS_10__function6__funcIZNK6Matrix3addEiE3$_0NS_9allocatorIS4_EEFiiEEENS_22__allocator_destructorINS5_IS8_EEEEE3getB8ue170006Ev', symObjAddr: 0x463C, symBinAddr: 0x100006CB8, symSize: 0x28 }
  - { offsetInCU: 0x12E22, offset: 0x1740D, size: 0x8, addend: 0x0, symName: '__ZNKSt3__110__function12__alloc_funcIZNK6Matrix3addEiE3$_0NS_9allocatorIS3_EEFiiEE8__targetB8ue170006Ev', symObjAddr: 0x4664, symBinAddr: 0x100006CE0, symSize: 0x24 }
  - { offsetInCU: 0x12E46, offset: 0x17431, size: 0x8, addend: 0x0, symName: '__ZNSt3__110__function6__funcIZNK6Matrix3addEiE3$_0NS_9allocatorIS3_EEFiiEEC1B8ue170006ERKS3_OS5_', symObjAddr: 0x4688, symBinAddr: 0x100006D04, symSize: 0x3C }
  - { offsetInCU: 0x12E8C, offset: 0x17477, size: 0x8, addend: 0x0, symName: '__ZNSt3__110unique_ptrINS_10__function6__funcIZNK6Matrix3addEiE3$_0NS_9allocatorIS4_EEFiiEEENS_22__allocator_destructorINS5_IS8_EEEEE7releaseB8ue170006Ev', symObjAddr: 0x46C4, symBinAddr: 0x100006D40, symSize: 0x44 }
  - { offsetInCU: 0x12EBF, offset: 0x174AA, size: 0x8, addend: 0x0, symName: '__ZNSt3__110unique_ptrINS_10__function6__funcIZNK6Matrix3addEiE3$_0NS_9allocatorIS4_EEFiiEEENS_22__allocator_destructorINS5_IS8_EEEEED1B8ue170006Ev', symObjAddr: 0x4708, symBinAddr: 0x100006D84, symSize: 0x2C }
  - { offsetInCU: 0x12EE7, offset: 0x174D2, size: 0x8, addend: 0x0, symName: '__ZNKSt3__117__compressed_pairIZNK6Matrix3addEiE3$_0NS_9allocatorIS2_EEE6secondB8ue170006Ev', symObjAddr: 0x4734, symBinAddr: 0x100006DB0, symSize: 0x24 }
  - { offsetInCU: 0x12F0B, offset: 0x174F6, size: 0x8, addend: 0x0, symName: '__ZNKSt3__122__compressed_pair_elemINS_9allocatorIZNK6Matrix3addEiE3$_0EELi1ELb1EE5__getB8ue170006Ev', symObjAddr: 0x4758, symBinAddr: 0x100006DD4, symSize: 0x14 }
  - { offsetInCU: 0x12F39, offset: 0x17524, size: 0x8, addend: 0x0, symName: '__ZNSt3__116allocator_traitsINS_9allocatorINS_10__function6__funcIZNK6Matrix3addEiE3$_0NS1_IS5_EEFiiEEEEEE8max_sizeB8ue170006IS9_vEEmRKS9_', symObjAddr: 0x476C, symBinAddr: 0x100006DE8, symSize: 0x24 }
  - { offsetInCU: 0x12F66, offset: 0x17551, size: 0x8, addend: 0x0, symName: '__ZNKSt3__19allocatorINS_10__function6__funcIZNK6Matrix3addEiE3$_0NS0_IS4_EEFiiEEEE8max_sizeB8ue170006Ev', symObjAddr: 0x4790, symBinAddr: 0x100006E0C, symSize: 0x14 }
  - { offsetInCU: 0x12F8A, offset: 0x17575, size: 0x8, addend: 0x0, symName: '__ZNSt3__122__allocator_destructorINS_9allocatorINS_10__function6__funcIZNK6Matrix3addEiE3$_0NS1_IS5_EEFiiEEEEEEC2B8ue170006ERS9_m', symObjAddr: 0x47A4, symBinAddr: 0x100006E20, symSize: 0x2C }
  - { offsetInCU: 0x12FCE, offset: 0x175B9, size: 0x8, addend: 0x0, symName: '__ZNSt3__110unique_ptrINS_10__function6__funcIZNK6Matrix3addEiE3$_0NS_9allocatorIS4_EEFiiEEENS_22__allocator_destructorINS5_IS8_EEEEEC2B8ue170006ILb1EvEEPS8_NS_16__dependent_typeINS_27__unique_ptr_deleter_sfinaeISB_EEXT_EE20__good_rval_ref_typeE', symObjAddr: 0x47D0, symBinAddr: 0x100006E4C, symSize: 0x48 }
  - { offsetInCU: 0x1301D, offset: 0x17608, size: 0x8, addend: 0x0, symName: '__ZNSt3__117__compressed_pairIPNS_10__function6__funcIZNK6Matrix3addEiE3$_0NS_9allocatorIS4_EEFiiEEENS_22__allocator_destructorINS5_IS8_EEEEEC1B8ue170006IRS9_SC_EEOT_OT0_', symObjAddr: 0x4818, symBinAddr: 0x100006E94, symSize: 0x3C }
  - { offsetInCU: 0x13073, offset: 0x1765E, size: 0x8, addend: 0x0, symName: '__ZNSt3__117__compressed_pairIPNS_10__function6__funcIZNK6Matrix3addEiE3$_0NS_9allocatorIS4_EEFiiEEENS_22__allocator_destructorINS5_IS8_EEEEEC2B8ue170006IRS9_SC_EEOT_OT0_', symObjAddr: 0x4854, symBinAddr: 0x100006ED0, symSize: 0x48 }
  - { offsetInCU: 0x130C9, offset: 0x176B4, size: 0x8, addend: 0x0, symName: '__ZNSt3__122__compressed_pair_elemIPNS_10__function6__funcIZNK6Matrix3addEiE3$_0NS_9allocatorIS4_EEFiiEEELi0ELb0EEC2B8ue170006IRS9_vEEOT_', symObjAddr: 0x489C, symBinAddr: 0x100006F18, symSize: 0x24 }
  - { offsetInCU: 0x13109, offset: 0x176F4, size: 0x8, addend: 0x0, symName: '__ZNSt3__122__compressed_pair_elemINS_22__allocator_destructorINS_9allocatorINS_10__function6__funcIZNK6Matrix3addEiE3$_0NS2_IS6_EEFiiEEEEEEELi1ELb0EEC2B8ue170006ISB_vEEOT_', symObjAddr: 0x48C0, symBinAddr: 0x100006F3C, symSize: 0x24 }
  - { offsetInCU: 0x13149, offset: 0x17734, size: 0x8, addend: 0x0, symName: '__ZNKSt3__117__compressed_pairIPNS_10__function6__funcIZNK6Matrix3addEiE3$_0NS_9allocatorIS4_EEFiiEEENS_22__allocator_destructorINS5_IS8_EEEEE5firstB8ue170006Ev', symObjAddr: 0x48E4, symBinAddr: 0x100006F60, symSize: 0x24 }
  - { offsetInCU: 0x1316D, offset: 0x17758, size: 0x8, addend: 0x0, symName: '__ZNKSt3__122__compressed_pair_elemIPNS_10__function6__funcIZNK6Matrix3addEiE3$_0NS_9allocatorIS4_EEFiiEEELi0ELb0EE5__getB8ue170006Ev', symObjAddr: 0x4908, symBinAddr: 0x100006F84, symSize: 0x14 }
  - { offsetInCU: 0x13191, offset: 0x1777C, size: 0x8, addend: 0x0, symName: '__ZNKSt3__117__compressed_pairIZNK6Matrix3addEiE3$_0NS_9allocatorIS2_EEE5firstB8ue170006Ev', symObjAddr: 0x491C, symBinAddr: 0x100006F98, symSize: 0x24 }
  - { offsetInCU: 0x131B5, offset: 0x177A0, size: 0x8, addend: 0x0, symName: '__ZNKSt3__122__compressed_pair_elemIZNK6Matrix3addEiE3$_0Li0ELb0EE5__getB8ue170006Ev', symObjAddr: 0x4940, symBinAddr: 0x100006FBC, symSize: 0x14 }
  - { offsetInCU: 0x131D9, offset: 0x177C4, size: 0x8, addend: 0x0, symName: '__ZNSt3__110__function6__funcIZNK6Matrix3addEiE3$_0NS_9allocatorIS3_EEFiiEEC2B8ue170006ERKS3_OS5_', symObjAddr: 0x4954, symBinAddr: 0x100006FD0, symSize: 0x88 }
  - { offsetInCU: 0x1321F, offset: 0x1780A, size: 0x8, addend: 0x0, symName: '__ZNSt3__110__function12__alloc_funcIZNK6Matrix3addEiE3$_0NS_9allocatorIS3_EEFiiEEC1B8ue170006ERKS3_OS5_', symObjAddr: 0x49DC, symBinAddr: 0x100007058, symSize: 0x3C }
  - { offsetInCU: 0x13263, offset: 0x1784E, size: 0x8, addend: 0x0, symName: '__ZNSt3__110__function12__alloc_funcIZNK6Matrix3addEiE3$_0NS_9allocatorIS3_EEFiiEEC2B8ue170006ERKS3_OS5_', symObjAddr: 0x4A18, symBinAddr: 0x100007094, symSize: 0x5C }
  - { offsetInCU: 0x132A7, offset: 0x17892, size: 0x8, addend: 0x0, symName: '__ZNSt3__117__compressed_pairIZNK6Matrix3addEiE3$_0NS_9allocatorIS2_EEEC1B8ue170006IJRKS2_EJOS4_EEENS_21piecewise_construct_tENS_5tupleIJDpT_EEENSB_IJDpT0_EEE', symObjAddr: 0x4AA0, symBinAddr: 0x10000711C, symSize: 0x3C }
  - { offsetInCU: 0x1330F, offset: 0x178FA, size: 0x8, addend: 0x0, symName: '__ZNSt3__15tupleIJRKZNK6Matrix3addEiE3$_0EEC1B8ue170006INS_4_AndELi0EEES4_', symObjAddr: 0x4ADC, symBinAddr: 0x100007158, symSize: 0x34 }
  - { offsetInCU: 0x13357, offset: 0x17942, size: 0x8, addend: 0x0, symName: '__ZNSt3__15tupleIJRKZNK6Matrix3addEiE3$_0EEC2B8ue170006INS_4_AndELi0EEES4_', symObjAddr: 0x4B10, symBinAddr: 0x10000718C, symSize: 0x34 }
  - { offsetInCU: 0x1339F, offset: 0x1798A, size: 0x8, addend: 0x0, symName: '__ZNSt3__112__tuple_implINS_15__tuple_indicesIJLm0EEEEJRKZNK6Matrix3addEiE3$_0EEC1B8ue170006IJLm0EEJS6_EJEJEJS6_EEENS1_IJXspT_EEEENS_13__tuple_typesIJDpT0_EEENS1_IJXspT1_EEEENSA_IJDpT2_EEEDpOT3_', symObjAddr: 0x4B44, symBinAddr: 0x1000071C0, symSize: 0x34 }
  - { offsetInCU: 0x1342F, offset: 0x17A1A, size: 0x8, addend: 0x0, symName: '__ZNSt3__112__tuple_implINS_15__tuple_indicesIJLm0EEEEJRKZNK6Matrix3addEiE3$_0EEC2B8ue170006IJLm0EEJS6_EJEJEJS6_EEENS1_IJXspT_EEEENS_13__tuple_typesIJDpT0_EEENS1_IJXspT1_EEEENSA_IJDpT2_EEEDpOT3_', symObjAddr: 0x4B78, symBinAddr: 0x1000071F4, symSize: 0x34 }
  - { offsetInCU: 0x134BF, offset: 0x17AAA, size: 0x8, addend: 0x0, symName: '__ZNSt3__112__tuple_leafILm0ERKZNK6Matrix3addEiE3$_0Lb0EEC2B8ue170006IS4_vEEOT_', symObjAddr: 0x4BAC, symBinAddr: 0x100007228, symSize: 0x20 }
  - { offsetInCU: 0x13500, offset: 0x17AEB, size: 0x8, addend: 0x0, symName: '__ZNSt3__117__compressed_pairIZNK6Matrix3addEiE3$_0NS_9allocatorIS2_EEEC2B8ue170006IJRKS2_EJOS4_EEENS_21piecewise_construct_tENS_5tupleIJDpT_EEENSB_IJDpT0_EEE', symObjAddr: 0x4BCC, symBinAddr: 0x100007248, symSize: 0x54 }
  - { offsetInCU: 0x13568, offset: 0x17B53, size: 0x8, addend: 0x0, symName: '__ZNSt3__122__compressed_pair_elemIZNK6Matrix3addEiE3$_0Li0ELb0EEC2B8ue170006IJRKS2_EJLm0EEEENS_21piecewise_construct_tENS_5tupleIJDpT_EEENS_15__tuple_indicesIJXspT0_EEEE', symObjAddr: 0x4C20, symBinAddr: 0x10000729C, symSize: 0x44 }
  - { offsetInCU: 0x135CC, offset: 0x17BB7, size: 0x8, addend: 0x0, symName: '__ZNSt3__112__tuple_leafILm0ERKZNK6Matrix3addEiE3$_0Lb0EE3getB8ue170006Ev', symObjAddr: 0x4C88, symBinAddr: 0x100007304, symSize: 0x18 }
  - { offsetInCU: 0x135F0, offset: 0x17BDB, size: 0x8, addend: 0x0, symName: '__ZNSt3__117__compressed_pairIPNS_10__function6__funcIZNK6Matrix3addEiE3$_0NS_9allocatorIS4_EEFiiEEENS_22__allocator_destructorINS5_IS8_EEEEE5firstB8ue170006Ev', symObjAddr: 0x4CA0, symBinAddr: 0x10000731C, symSize: 0x24 }
  - { offsetInCU: 0x13614, offset: 0x17BFF, size: 0x8, addend: 0x0, symName: '__ZNSt3__122__compressed_pair_elemIPNS_10__function6__funcIZNK6Matrix3addEiE3$_0NS_9allocatorIS4_EEFiiEEELi0ELb0EE5__getB8ue170006Ev', symObjAddr: 0x4CC4, symBinAddr: 0x100007340, symSize: 0x14 }
  - { offsetInCU: 0x13638, offset: 0x17C23, size: 0x8, addend: 0x0, symName: '__ZNSt3__110unique_ptrINS_10__function6__funcIZNK6Matrix3addEiE3$_0NS_9allocatorIS4_EEFiiEEENS_22__allocator_destructorINS5_IS8_EEEEED2B8ue170006Ev', symObjAddr: 0x4CD8, symBinAddr: 0x100007354, symSize: 0x30 }
  - { offsetInCU: 0x13660, offset: 0x17C4B, size: 0x8, addend: 0x0, symName: '__ZNSt3__110unique_ptrINS_10__function6__funcIZNK6Matrix3addEiE3$_0NS_9allocatorIS4_EEFiiEEENS_22__allocator_destructorINS5_IS8_EEEEE5resetB8ue170006EPS8_', symObjAddr: 0x4D08, symBinAddr: 0x100007384, symSize: 0x78 }
  - { offsetInCU: 0x136A2, offset: 0x17C8D, size: 0x8, addend: 0x0, symName: '__ZNSt3__117__compressed_pairIPNS_10__function6__funcIZNK6Matrix3addEiE3$_0NS_9allocatorIS4_EEFiiEEENS_22__allocator_destructorINS5_IS8_EEEEE6secondB8ue170006Ev', symObjAddr: 0x4D80, symBinAddr: 0x1000073FC, symSize: 0x28 }
  - { offsetInCU: 0x136C6, offset: 0x17CB1, size: 0x8, addend: 0x0, symName: '__ZNSt3__122__allocator_destructorINS_9allocatorINS_10__function6__funcIZNK6Matrix3addEiE3$_0NS1_IS5_EEFiiEEEEEEclB8ue170006EPS8_', symObjAddr: 0x4DA8, symBinAddr: 0x100007424, symSize: 0x34 }
  - { offsetInCU: 0x136F8, offset: 0x17CE3, size: 0x8, addend: 0x0, symName: '__ZNSt3__122__compressed_pair_elemINS_22__allocator_destructorINS_9allocatorINS_10__function6__funcIZNK6Matrix3addEiE3$_0NS2_IS6_EEFiiEEEEEEELi1ELb0EE5__getB8ue170006Ev', symObjAddr: 0x4DDC, symBinAddr: 0x100007458, symSize: 0x14 }
  - { offsetInCU: 0x1371C, offset: 0x17D07, size: 0x8, addend: 0x0, symName: '__ZNSt3__116allocator_traitsINS_9allocatorINS_10__function6__funcIZNK6Matrix3addEiE3$_0NS1_IS5_EEFiiEEEEEE10deallocateB8ue170006ERS9_PS8_m', symObjAddr: 0x4DF0, symBinAddr: 0x10000746C, symSize: 0x34 }
  - { offsetInCU: 0x1375D, offset: 0x17D48, size: 0x8, addend: 0x0, symName: '__ZNSt3__19allocatorINS_10__function6__funcIZNK6Matrix3addEiE3$_0NS0_IS4_EEFiiEEEE10deallocateB8ue170006EPS7_m', symObjAddr: 0x4E24, symBinAddr: 0x1000074A0, symSize: 0x40 }
  - { offsetInCU: 0x1379D, offset: 0x17D88, size: 0x8, addend: 0x0, symName: '__ZNSt3__110__function6__funcIZNK6Matrix3addEiE3$_0NS_9allocatorIS3_EEFiiEEC1B8ue170006ERKS3_RKS5_', symObjAddr: 0x4E64, symBinAddr: 0x1000074E0, symSize: 0x3C }
  - { offsetInCU: 0x137E3, offset: 0x17DCE, size: 0x8, addend: 0x0, symName: '__ZNSt3__110__function6__funcIZNK6Matrix3addEiE3$_0NS_9allocatorIS3_EEFiiEEC2B8ue170006ERKS3_RKS5_', symObjAddr: 0x4EA0, symBinAddr: 0x10000751C, symSize: 0x88 }
  - { offsetInCU: 0x13829, offset: 0x17E14, size: 0x8, addend: 0x0, symName: '__ZNSt3__110__function12__alloc_funcIZNK6Matrix3addEiE3$_0NS_9allocatorIS3_EEFiiEEC1B8ue170006ERKS3_RKS5_', symObjAddr: 0x4F28, symBinAddr: 0x1000075A4, symSize: 0x3C }
  - { offsetInCU: 0x1386D, offset: 0x17E58, size: 0x8, addend: 0x0, symName: '__ZNSt3__110__function12__alloc_funcIZNK6Matrix3addEiE3$_0NS_9allocatorIS3_EEFiiEEC2B8ue170006ERKS3_RKS5_', symObjAddr: 0x4F64, symBinAddr: 0x1000075E0, symSize: 0x5C }
  - { offsetInCU: 0x138B1, offset: 0x17E9C, size: 0x8, addend: 0x0, symName: '__ZNSt3__117__compressed_pairIZNK6Matrix3addEiE3$_0NS_9allocatorIS2_EEEC1B8ue170006IJRKS2_EJRKS4_EEENS_21piecewise_construct_tENS_5tupleIJDpT_EEENSC_IJDpT0_EEE', symObjAddr: 0x4FEC, symBinAddr: 0x100007668, symSize: 0x3C }
  - { offsetInCU: 0x13919, offset: 0x17F04, size: 0x8, addend: 0x0, symName: '__ZNSt3__15tupleIJRKNS_9allocatorIZNK6Matrix3addEiE3$_0EEEEC1B8ue170006INS_4_AndELi0EEES6_', symObjAddr: 0x5028, symBinAddr: 0x1000076A4, symSize: 0x34 }
  - { offsetInCU: 0x13961, offset: 0x17F4C, size: 0x8, addend: 0x0, symName: '__ZNSt3__15tupleIJRKNS_9allocatorIZNK6Matrix3addEiE3$_0EEEEC2B8ue170006INS_4_AndELi0EEES6_', symObjAddr: 0x505C, symBinAddr: 0x1000076D8, symSize: 0x34 }
  - { offsetInCU: 0x139A9, offset: 0x17F94, size: 0x8, addend: 0x0, symName: '__ZNSt3__112__tuple_implINS_15__tuple_indicesIJLm0EEEEJRKNS_9allocatorIZNK6Matrix3addEiE3$_0EEEEC1B8ue170006IJLm0EEJS8_EJEJEJS8_EEENS1_IJXspT_EEEENS_13__tuple_typesIJDpT0_EEENS1_IJXspT1_EEEENSC_IJDpT2_EEEDpOT3_', symObjAddr: 0x5090, symBinAddr: 0x10000770C, symSize: 0x34 }
  - { offsetInCU: 0x13A39, offset: 0x18024, size: 0x8, addend: 0x0, symName: '__ZNSt3__112__tuple_implINS_15__tuple_indicesIJLm0EEEEJRKNS_9allocatorIZNK6Matrix3addEiE3$_0EEEEC2B8ue170006IJLm0EEJS8_EJEJEJS8_EEENS1_IJXspT_EEEENS_13__tuple_typesIJDpT0_EEENS1_IJXspT1_EEEENSC_IJDpT2_EEEDpOT3_', symObjAddr: 0x50C4, symBinAddr: 0x100007740, symSize: 0x34 }
  - { offsetInCU: 0x13AC9, offset: 0x180B4, size: 0x8, addend: 0x0, symName: '__ZNSt3__112__tuple_leafILm0ERKNS_9allocatorIZNK6Matrix3addEiE3$_0EELb0EEC2B8ue170006IS6_vEEOT_', symObjAddr: 0x50F8, symBinAddr: 0x100007774, symSize: 0x20 }
  - { offsetInCU: 0x13B0A, offset: 0x180F5, size: 0x8, addend: 0x0, symName: '__ZNSt3__117__compressed_pairIZNK6Matrix3addEiE3$_0NS_9allocatorIS2_EEEC2B8ue170006IJRKS2_EJRKS4_EEENS_21piecewise_construct_tENS_5tupleIJDpT_EEENSC_IJDpT0_EEE', symObjAddr: 0x5118, symBinAddr: 0x100007794, symSize: 0x54 }
  - { offsetInCU: 0x13B72, offset: 0x1815D, size: 0x8, addend: 0x0, symName: '__ZNSt3__122__compressed_pair_elemINS_9allocatorIZNK6Matrix3addEiE3$_0EELi1ELb1EEC2B8ue170006IJRKS4_EJLm0EEEENS_21piecewise_construct_tENS_5tupleIJDpT_EEENS_15__tuple_indicesIJXspT0_EEEE', symObjAddr: 0x516C, symBinAddr: 0x1000077E8, symSize: 0x38 }
  - { offsetInCU: 0x13BD6, offset: 0x181C1, size: 0x8, addend: 0x0, symName: '__ZNSt3__112__tuple_leafILm0ERKNS_9allocatorIZNK6Matrix3addEiE3$_0EELb0EE3getB8ue170006Ev', symObjAddr: 0x51C8, symBinAddr: 0x100007844, symSize: 0x18 }
  - { offsetInCU: 0x13BFA, offset: 0x181E5, size: 0x8, addend: 0x0, symName: '__ZNSt3__110__function12__alloc_funcIZNK6Matrix3addEiE3$_0NS_9allocatorIS3_EEFiiEE7destroyB8ue170006Ev', symObjAddr: 0x51E0, symBinAddr: 0x10000785C, symSize: 0x10 }
  - { offsetInCU: 0x13C1E, offset: 0x18209, size: 0x8, addend: 0x0, symName: '__ZNSt3__110__function12__alloc_funcIZNK6Matrix3addEiE3$_0NS_9allocatorIS3_EEFiiEEclB8ue170006EOi', symObjAddr: 0x51F0, symBinAddr: 0x10000786C, symSize: 0x30 }
  - { offsetInCU: 0x13C50, offset: 0x1823B, size: 0x8, addend: 0x0, symName: '__ZNSt3__128__invoke_void_return_wrapperIiLb0EE6__callB8ue170006IJRZNK6Matrix3addEiE3$_0iEEEiDpOT_', symObjAddr: 0x5220, symBinAddr: 0x10000789C, symSize: 0x2C }
  - { offsetInCU: 0x13C92, offset: 0x1827D, size: 0x8, addend: 0x0, symName: '__ZNSt3__117__compressed_pairIZNK6Matrix3addEiE3$_0NS_9allocatorIS2_EEE5firstB8ue170006Ev', symObjAddr: 0x524C, symBinAddr: 0x1000078C8, symSize: 0x24 }
  - { offsetInCU: 0x13CBB, offset: 0x182A6, size: 0x8, addend: 0x0, symName: '__ZZNK6Matrix3addEiENK3$_0clEi', symObjAddr: 0x52A0, symBinAddr: 0x10000791C, symSize: 0x24 }
  - { offsetInCU: 0x13CF1, offset: 0x182DC, size: 0x8, addend: 0x0, symName: '__ZNSt3__122__compressed_pair_elemIZNK6Matrix3addEiE3$_0Li0ELb0EE5__getB8ue170006Ev', symObjAddr: 0x52C4, symBinAddr: 0x100007940, symSize: 0x14 }
  - { offsetInCU: 0x13D4B, offset: 0x18336, size: 0x8, addend: 0x0, symName: __ZNKSt9type_infoeqB8ue170006ERKS_, symObjAddr: 0x52D8, symBinAddr: 0x100007954, symSize: 0xDC }
  - { offsetInCU: 0x13DE7, offset: 0x183D2, size: 0x8, addend: 0x0, symName: __ZNSt27__type_info_implementations30__non_unique_arm_rtti_bit_impl21__is_type_name_uniqueB8ue170006Em, symObjAddr: 0x53B4, symBinAddr: 0x100007A30, symSize: 0x20 }
  - { offsetInCU: 0x13E0B, offset: 0x183F6, size: 0x8, addend: 0x0, symName: __ZNSt3__18functionIFiiEED2Ev, symObjAddr: 0x53D4, symBinAddr: 0x100007A50, symSize: 0x2C }
  - { offsetInCU: 0x13E36, offset: 0x18421, size: 0x8, addend: 0x0, symName: __ZNSt3__110__function12__value_funcIFiiEED1B8ue170006Ev, symObjAddr: 0x5400, symBinAddr: 0x100007A7C, symSize: 0x2C }
  - { offsetInCU: 0x13E5E, offset: 0x18449, size: 0x8, addend: 0x0, symName: __ZNSt3__110__function12__value_funcIFiiEED2B8ue170006Ev, symObjAddr: 0x542C, symBinAddr: 0x100007AA8, symSize: 0x90 }
  - { offsetInCU: 0x13E86, offset: 0x18471, size: 0x8, addend: 0x0, symName: '__ZNSt3__18functionIFiiEEC2IZNK6Matrix8subtractEiE3$_1vEET_', symObjAddr: 0x54BC, symBinAddr: 0x100007B38, symSize: 0x38 }
  - { offsetInCU: 0x13ECA, offset: 0x184B5, size: 0x8, addend: 0x0, symName: '__ZNSt3__110__function12__value_funcIFiiEEC1B8ue170006IZNK6Matrix8subtractEiE3$_1vEEOT_', symObjAddr: 0x54F4, symBinAddr: 0x100007B70, symSize: 0x50 }
  - { offsetInCU: 0x13F0B, offset: 0x184F6, size: 0x8, addend: 0x0, symName: '__ZNSt3__19allocatorIZNK6Matrix8subtractEiE3$_1EC1B8ue170006Ev', symObjAddr: 0x5544, symBinAddr: 0x100007BC0, symSize: 0x2C }
  - { offsetInCU: 0x13F33, offset: 0x1851E, size: 0x8, addend: 0x0, symName: '__ZNSt3__110__function12__value_funcIFiiEEC1B8ue170006IZNK6Matrix8subtractEiE3$_1NS_9allocatorIS6_EEEEOT_RKT0_', symObjAddr: 0x5570, symBinAddr: 0x100007BEC, symSize: 0x3C }
  - { offsetInCU: 0x13F8B, offset: 0x18576, size: 0x8, addend: 0x0, symName: '__ZNSt3__19allocatorIZNK6Matrix8subtractEiE3$_1EC2B8ue170006Ev', symObjAddr: 0x55AC, symBinAddr: 0x100007C28, symSize: 0x2C }
  - { offsetInCU: 0x13FB3, offset: 0x1859E, size: 0x8, addend: 0x0, symName: '__ZNSt3__116__non_trivial_ifILb1ENS_9allocatorIZNK6Matrix8subtractEiE3$_1EEEC2B8ue170006Ev', symObjAddr: 0x55D8, symBinAddr: 0x100007C54, symSize: 0x14 }
  - { offsetInCU: 0x13FDB, offset: 0x185C6, size: 0x8, addend: 0x0, symName: '__ZNSt3__110__function12__value_funcIFiiEEC2B8ue170006IZNK6Matrix8subtractEiE3$_1NS_9allocatorIS6_EEEEOT_RKT0_', symObjAddr: 0x55EC, symBinAddr: 0x100007C68, symSize: 0x94 }
  - { offsetInCU: 0x14080, offset: 0x1866B, size: 0x8, addend: 0x0, symName: '__ZNSt3__19allocatorINS_10__function6__funcIZNK6Matrix8subtractEiE3$_1NS0_IS4_EEFiiEEEEC1B8ue170006IS4_EERKNS0_IT_EE', symObjAddr: 0x5698, symBinAddr: 0x100007D14, symSize: 0x34 }
  - { offsetInCU: 0x140C1, offset: 0x186AC, size: 0x8, addend: 0x0, symName: '__ZNSt3__19allocatorIZNK6Matrix8subtractEiE3$_1EC1B8ue170006INS_10__function6__funcIS2_S3_FiiEEEEERKNS0_IT_EE', symObjAddr: 0x56CC, symBinAddr: 0x100007D48, symSize: 0x34 }
  - { offsetInCU: 0x140FD, offset: 0x186E8, size: 0x8, addend: 0x0, symName: '__ZNSt3__110__function6__funcIZNK6Matrix8subtractEiE3$_1NS_9allocatorIS3_EEFiiEEC1B8ue170006EOS3_OS5_', symObjAddr: 0x5700, symBinAddr: 0x100007D7C, symSize: 0x3C }
  - { offsetInCU: 0x14143, offset: 0x1872E, size: 0x8, addend: 0x0, symName: '__ZNSt3__19allocatorINS_10__function6__funcIZNK6Matrix8subtractEiE3$_1NS0_IS4_EEFiiEEEEC2B8ue170006IS4_EERKNS0_IT_EE', symObjAddr: 0x573C, symBinAddr: 0x100007DB8, symSize: 0x30 }
  - { offsetInCU: 0x1417F, offset: 0x1876A, size: 0x8, addend: 0x0, symName: '__ZNSt3__116__non_trivial_ifILb1ENS_9allocatorINS_10__function6__funcIZNK6Matrix8subtractEiE3$_1NS1_IS5_EEFiiEEEEEEC2B8ue170006Ev', symObjAddr: 0x576C, symBinAddr: 0x100007DE8, symSize: 0x14 }
  - { offsetInCU: 0x141A7, offset: 0x18792, size: 0x8, addend: 0x0, symName: '__ZNSt3__19allocatorIZNK6Matrix8subtractEiE3$_1EC2B8ue170006INS_10__function6__funcIS2_S3_FiiEEEEERKNS0_IT_EE', symObjAddr: 0x5780, symBinAddr: 0x100007DFC, symSize: 0x30 }
  - { offsetInCU: 0x141E3, offset: 0x187CE, size: 0x8, addend: 0x0, symName: '__ZNSt3__110__function6__funcIZNK6Matrix8subtractEiE3$_1NS_9allocatorIS3_EEFiiEEC2B8ue170006EOS3_OS5_', symObjAddr: 0x57B0, symBinAddr: 0x100007E2C, symSize: 0x88 }
  - { offsetInCU: 0x14229, offset: 0x18814, size: 0x8, addend: 0x0, symName: '__ZNSt3__110__function12__alloc_funcIZNK6Matrix8subtractEiE3$_1NS_9allocatorIS3_EEFiiEEC1B8ue170006EOS3_OS5_', symObjAddr: 0x5838, symBinAddr: 0x100007EB4, symSize: 0x3C }
  - { offsetInCU: 0x1426D, offset: 0x18858, size: 0x8, addend: 0x0, symName: '__ZNSt3__110__function6__funcIZNK6Matrix8subtractEiE3$_1NS_9allocatorIS3_EEFiiEED1Ev', symObjAddr: 0x5874, symBinAddr: 0x100007EF0, symSize: 0x2C }
  - { offsetInCU: 0x14299, offset: 0x18884, size: 0x8, addend: 0x0, symName: '__ZNSt3__110__function6__funcIZNK6Matrix8subtractEiE3$_1NS_9allocatorIS3_EEFiiEED0Ev', symObjAddr: 0x58A0, symBinAddr: 0x100007F1C, symSize: 0x30 }
  - { offsetInCU: 0x142C5, offset: 0x188B0, size: 0x8, addend: 0x0, symName: '__ZNKSt3__110__function6__funcIZNK6Matrix8subtractEiE3$_1NS_9allocatorIS3_EEFiiEE7__cloneEv', symObjAddr: 0x58D0, symBinAddr: 0x100007F4C, symSize: 0xFC }
  - { offsetInCU: 0x14316, offset: 0x18901, size: 0x8, addend: 0x0, symName: '__ZNKSt3__110__function6__funcIZNK6Matrix8subtractEiE3$_1NS_9allocatorIS3_EEFiiEE7__cloneEPNS0_6__baseIS6_EE', symObjAddr: 0x59CC, symBinAddr: 0x100008048, symSize: 0x58 }
  - { offsetInCU: 0x1434C, offset: 0x18937, size: 0x8, addend: 0x0, symName: '__ZNSt3__110__function6__funcIZNK6Matrix8subtractEiE3$_1NS_9allocatorIS3_EEFiiEE7destroyEv', symObjAddr: 0x5A24, symBinAddr: 0x1000080A0, symSize: 0x28 }
  - { offsetInCU: 0x14373, offset: 0x1895E, size: 0x8, addend: 0x0, symName: '__ZNSt3__110__function6__funcIZNK6Matrix8subtractEiE3$_1NS_9allocatorIS3_EEFiiEE18destroy_deallocateEv', symObjAddr: 0x5A4C, symBinAddr: 0x1000080C8, symSize: 0x58 }
  - { offsetInCU: 0x143B5, offset: 0x189A0, size: 0x8, addend: 0x0, symName: '__ZNSt3__110__function6__funcIZNK6Matrix8subtractEiE3$_1NS_9allocatorIS3_EEFiiEEclEOi', symObjAddr: 0x5AA4, symBinAddr: 0x100008120, symSize: 0x30 }
  - { offsetInCU: 0x143EB, offset: 0x189D6, size: 0x8, addend: 0x0, symName: '__ZNKSt3__110__function6__funcIZNK6Matrix8subtractEiE3$_1NS_9allocatorIS3_EEFiiEE6targetERKSt9type_info', symObjAddr: 0x5AD4, symBinAddr: 0x100008150, symSize: 0x60 }
  - { offsetInCU: 0x14421, offset: 0x18A0C, size: 0x8, addend: 0x0, symName: '__ZNKSt3__110__function6__funcIZNK6Matrix8subtractEiE3$_1NS_9allocatorIS3_EEFiiEE11target_typeEv', symObjAddr: 0x5B34, symBinAddr: 0x1000081B0, symSize: 0x18 }
  - { offsetInCU: 0x14447, offset: 0x18A32, size: 0x8, addend: 0x0, symName: '__ZNSt3__110__function12__alloc_funcIZNK6Matrix8subtractEiE3$_1NS_9allocatorIS3_EEFiiEEC2B8ue170006EOS3_OS5_', symObjAddr: 0x5B4C, symBinAddr: 0x1000081C8, symSize: 0x5C }
  - { offsetInCU: 0x1448B, offset: 0x18A76, size: 0x8, addend: 0x0, symName: '__ZNSt3__117__compressed_pairIZNK6Matrix8subtractEiE3$_1NS_9allocatorIS2_EEEC1B8ue170006IJOS2_EJOS4_EEENS_21piecewise_construct_tENS_5tupleIJDpT_EEENSA_IJDpT0_EEE', symObjAddr: 0x5C00, symBinAddr: 0x10000827C, symSize: 0x3C }
  - { offsetInCU: 0x144F3, offset: 0x18ADE, size: 0x8, addend: 0x0, symName: '__ZNSt3__15tupleIJOZNK6Matrix8subtractEiE3$_1EEC1B8ue170006IJS2_ELi0EEEDpOT_', symObjAddr: 0x5C3C, symBinAddr: 0x1000082B8, symSize: 0x34 }
  - { offsetInCU: 0x1453C, offset: 0x18B27, size: 0x8, addend: 0x0, symName: '__ZNSt3__15tupleIJOZNK6Matrix8subtractEiE3$_1EEC2B8ue170006IJS2_ELi0EEEDpOT_', symObjAddr: 0x5C70, symBinAddr: 0x1000082EC, symSize: 0x34 }
  - { offsetInCU: 0x14585, offset: 0x18B70, size: 0x8, addend: 0x0, symName: '__ZNSt3__112__tuple_implINS_15__tuple_indicesIJLm0EEEEJOZNK6Matrix8subtractEiE3$_1EEC1B8ue170006IJLm0EEJS5_EJEJEJS4_EEENS1_IJXspT_EEEENS_13__tuple_typesIJDpT0_EEENS1_IJXspT1_EEEENS9_IJDpT2_EEEDpOT3_', symObjAddr: 0x5CA4, symBinAddr: 0x100008320, symSize: 0x34 }
  - { offsetInCU: 0x14615, offset: 0x18C00, size: 0x8, addend: 0x0, symName: '__ZNSt3__112__tuple_implINS_15__tuple_indicesIJLm0EEEEJOZNK6Matrix8subtractEiE3$_1EEC2B8ue170006IJLm0EEJS5_EJEJEJS4_EEENS1_IJXspT_EEEENS_13__tuple_typesIJDpT0_EEENS1_IJXspT1_EEEENS9_IJDpT2_EEEDpOT3_', symObjAddr: 0x5CD8, symBinAddr: 0x100008354, symSize: 0x34 }
  - { offsetInCU: 0x146A5, offset: 0x18C90, size: 0x8, addend: 0x0, symName: '__ZNSt3__112__tuple_leafILm0EOZNK6Matrix8subtractEiE3$_1Lb0EEC2B8ue170006IS2_vEEOT_', symObjAddr: 0x5D0C, symBinAddr: 0x100008388, symSize: 0x20 }
  - { offsetInCU: 0x146E6, offset: 0x18CD1, size: 0x8, addend: 0x0, symName: '__ZNSt3__15tupleIJONS_9allocatorIZNK6Matrix8subtractEiE3$_1EEEEC1B8ue170006IJS4_ELi0EEEDpOT_', symObjAddr: 0x5D2C, symBinAddr: 0x1000083A8, symSize: 0x34 }
  - { offsetInCU: 0x1472F, offset: 0x18D1A, size: 0x8, addend: 0x0, symName: '__ZNSt3__15tupleIJONS_9allocatorIZNK6Matrix8subtractEiE3$_1EEEEC2B8ue170006IJS4_ELi0EEEDpOT_', symObjAddr: 0x5D60, symBinAddr: 0x1000083DC, symSize: 0x34 }
  - { offsetInCU: 0x14778, offset: 0x18D63, size: 0x8, addend: 0x0, symName: '__ZNSt3__112__tuple_implINS_15__tuple_indicesIJLm0EEEEJONS_9allocatorIZNK6Matrix8subtractEiE3$_1EEEEC1B8ue170006IJLm0EEJS7_EJEJEJS6_EEENS1_IJXspT_EEEENS_13__tuple_typesIJDpT0_EEENS1_IJXspT1_EEEENSB_IJDpT2_EEEDpOT3_', symObjAddr: 0x5D94, symBinAddr: 0x100008410, symSize: 0x34 }
  - { offsetInCU: 0x14808, offset: 0x18DF3, size: 0x8, addend: 0x0, symName: '__ZNSt3__112__tuple_implINS_15__tuple_indicesIJLm0EEEEJONS_9allocatorIZNK6Matrix8subtractEiE3$_1EEEEC2B8ue170006IJLm0EEJS7_EJEJEJS6_EEENS1_IJXspT_EEEENS_13__tuple_typesIJDpT0_EEENS1_IJXspT1_EEEENSB_IJDpT2_EEEDpOT3_', symObjAddr: 0x5DC8, symBinAddr: 0x100008444, symSize: 0x34 }
  - { offsetInCU: 0x14898, offset: 0x18E83, size: 0x8, addend: 0x0, symName: '__ZNSt3__112__tuple_leafILm0EONS_9allocatorIZNK6Matrix8subtractEiE3$_1EELb0EEC2B8ue170006IS4_vEEOT_', symObjAddr: 0x5DFC, symBinAddr: 0x100008478, symSize: 0x20 }
  - { offsetInCU: 0x148D9, offset: 0x18EC4, size: 0x8, addend: 0x0, symName: '__ZNSt3__117__compressed_pairIZNK6Matrix8subtractEiE3$_1NS_9allocatorIS2_EEEC2B8ue170006IJOS2_EJOS4_EEENS_21piecewise_construct_tENS_5tupleIJDpT_EEENSA_IJDpT0_EEE', symObjAddr: 0x5E1C, symBinAddr: 0x100008498, symSize: 0x54 }
  - { offsetInCU: 0x14941, offset: 0x18F2C, size: 0x8, addend: 0x0, symName: '__ZNSt3__122__compressed_pair_elemIZNK6Matrix8subtractEiE3$_1Li0ELb0EEC2B8ue170006IJOS2_EJLm0EEEENS_21piecewise_construct_tENS_5tupleIJDpT_EEENS_15__tuple_indicesIJXspT0_EEEE', symObjAddr: 0x5E70, symBinAddr: 0x1000084EC, symSize: 0x44 }
  - { offsetInCU: 0x149A5, offset: 0x18F90, size: 0x8, addend: 0x0, symName: '__ZNSt3__122__compressed_pair_elemINS_9allocatorIZNK6Matrix8subtractEiE3$_1EELi1ELb1EEC2B8ue170006IJOS4_EJLm0EEEENS_21piecewise_construct_tENS_5tupleIJDpT_EEENS_15__tuple_indicesIJXspT0_EEEE', symObjAddr: 0x5EB4, symBinAddr: 0x100008530, symSize: 0x38 }
  - { offsetInCU: 0x14A09, offset: 0x18FF4, size: 0x8, addend: 0x0, symName: '__ZNSt3__112__tuple_leafILm0EOZNK6Matrix8subtractEiE3$_1Lb0EE3getB8ue170006Ev', symObjAddr: 0x5F10, symBinAddr: 0x10000858C, symSize: 0x18 }
  - { offsetInCU: 0x14A2D, offset: 0x19018, size: 0x8, addend: 0x0, symName: '__ZNSt3__112__tuple_leafILm0EONS_9allocatorIZNK6Matrix8subtractEiE3$_1EELb0EE3getB8ue170006Ev', symObjAddr: 0x5F4C, symBinAddr: 0x1000085C8, symSize: 0x18 }
  - { offsetInCU: 0x14A51, offset: 0x1903C, size: 0x8, addend: 0x0, symName: '__ZNSt3__110__function6__funcIZNK6Matrix8subtractEiE3$_1NS_9allocatorIS3_EEFiiEED2Ev', symObjAddr: 0x5F64, symBinAddr: 0x1000085E0, symSize: 0x2C }
  - { offsetInCU: 0x14A7D, offset: 0x19068, size: 0x8, addend: 0x0, symName: '__ZNKSt3__110__function12__alloc_funcIZNK6Matrix8subtractEiE3$_1NS_9allocatorIS3_EEFiiEE15__get_allocatorB8ue170006Ev', symObjAddr: 0x5F90, symBinAddr: 0x10000860C, symSize: 0x24 }
  - { offsetInCU: 0x14AA1, offset: 0x1908C, size: 0x8, addend: 0x0, symName: '__ZNSt3__19allocatorINS_10__function6__funcIZNK6Matrix8subtractEiE3$_1NS0_IS4_EEFiiEEEE8allocateB8ue170006Em', symObjAddr: 0x5FB4, symBinAddr: 0x100008630, symSize: 0x58 }
  - { offsetInCU: 0x14AE2, offset: 0x190CD, size: 0x8, addend: 0x0, symName: '__ZNSt3__122__allocator_destructorINS_9allocatorINS_10__function6__funcIZNK6Matrix8subtractEiE3$_1NS1_IS5_EEFiiEEEEEEC1B8ue170006ERS9_m', symObjAddr: 0x600C, symBinAddr: 0x100008688, symSize: 0x3C }
  - { offsetInCU: 0x14BB2, offset: 0x1919D, size: 0x8, addend: 0x0, symName: '__ZNSt3__110unique_ptrINS_10__function6__funcIZNK6Matrix8subtractEiE3$_1NS_9allocatorIS4_EEFiiEEENS_22__allocator_destructorINS5_IS8_EEEEEC1B8ue170006ILb1EvEEPS8_NS_16__dependent_typeINS_27__unique_ptr_deleter_sfinaeISB_EEXT_EE20__good_rval_ref_typeE', symObjAddr: 0x6048, symBinAddr: 0x1000086C4, symSize: 0x3C }
  - { offsetInCU: 0x14C01, offset: 0x191EC, size: 0x8, addend: 0x0, symName: '__ZNKSt3__110unique_ptrINS_10__function6__funcIZNK6Matrix8subtractEiE3$_1NS_9allocatorIS4_EEFiiEEENS_22__allocator_destructorINS5_IS8_EEEEE3getB8ue170006Ev', symObjAddr: 0x6084, symBinAddr: 0x100008700, symSize: 0x28 }
  - { offsetInCU: 0x14C25, offset: 0x19210, size: 0x8, addend: 0x0, symName: '__ZNKSt3__110__function12__alloc_funcIZNK6Matrix8subtractEiE3$_1NS_9allocatorIS3_EEFiiEE8__targetB8ue170006Ev', symObjAddr: 0x60AC, symBinAddr: 0x100008728, symSize: 0x24 }
  - { offsetInCU: 0x14C49, offset: 0x19234, size: 0x8, addend: 0x0, symName: '__ZNSt3__110__function6__funcIZNK6Matrix8subtractEiE3$_1NS_9allocatorIS3_EEFiiEEC1B8ue170006ERKS3_OS5_', symObjAddr: 0x60D0, symBinAddr: 0x10000874C, symSize: 0x3C }
  - { offsetInCU: 0x14C8F, offset: 0x1927A, size: 0x8, addend: 0x0, symName: '__ZNSt3__110unique_ptrINS_10__function6__funcIZNK6Matrix8subtractEiE3$_1NS_9allocatorIS4_EEFiiEEENS_22__allocator_destructorINS5_IS8_EEEEE7releaseB8ue170006Ev', symObjAddr: 0x610C, symBinAddr: 0x100008788, symSize: 0x44 }
  - { offsetInCU: 0x14CC2, offset: 0x192AD, size: 0x8, addend: 0x0, symName: '__ZNSt3__110unique_ptrINS_10__function6__funcIZNK6Matrix8subtractEiE3$_1NS_9allocatorIS4_EEFiiEEENS_22__allocator_destructorINS5_IS8_EEEEED1B8ue170006Ev', symObjAddr: 0x6150, symBinAddr: 0x1000087CC, symSize: 0x2C }
  - { offsetInCU: 0x14CEA, offset: 0x192D5, size: 0x8, addend: 0x0, symName: '__ZNKSt3__117__compressed_pairIZNK6Matrix8subtractEiE3$_1NS_9allocatorIS2_EEE6secondB8ue170006Ev', symObjAddr: 0x617C, symBinAddr: 0x1000087F8, symSize: 0x24 }
  - { offsetInCU: 0x14D0E, offset: 0x192F9, size: 0x8, addend: 0x0, symName: '__ZNKSt3__122__compressed_pair_elemINS_9allocatorIZNK6Matrix8subtractEiE3$_1EELi1ELb1EE5__getB8ue170006Ev', symObjAddr: 0x61A0, symBinAddr: 0x10000881C, symSize: 0x14 }
  - { offsetInCU: 0x14D3C, offset: 0x19327, size: 0x8, addend: 0x0, symName: '__ZNSt3__116allocator_traitsINS_9allocatorINS_10__function6__funcIZNK6Matrix8subtractEiE3$_1NS1_IS5_EEFiiEEEEEE8max_sizeB8ue170006IS9_vEEmRKS9_', symObjAddr: 0x61B4, symBinAddr: 0x100008830, symSize: 0x24 }
  - { offsetInCU: 0x14D69, offset: 0x19354, size: 0x8, addend: 0x0, symName: '__ZNKSt3__19allocatorINS_10__function6__funcIZNK6Matrix8subtractEiE3$_1NS0_IS4_EEFiiEEEE8max_sizeB8ue170006Ev', symObjAddr: 0x61D8, symBinAddr: 0x100008854, symSize: 0x14 }
  - { offsetInCU: 0x14D8D, offset: 0x19378, size: 0x8, addend: 0x0, symName: '__ZNSt3__122__allocator_destructorINS_9allocatorINS_10__function6__funcIZNK6Matrix8subtractEiE3$_1NS1_IS5_EEFiiEEEEEEC2B8ue170006ERS9_m', symObjAddr: 0x61EC, symBinAddr: 0x100008868, symSize: 0x2C }
  - { offsetInCU: 0x14DD1, offset: 0x193BC, size: 0x8, addend: 0x0, symName: '__ZNSt3__110unique_ptrINS_10__function6__funcIZNK6Matrix8subtractEiE3$_1NS_9allocatorIS4_EEFiiEEENS_22__allocator_destructorINS5_IS8_EEEEEC2B8ue170006ILb1EvEEPS8_NS_16__dependent_typeINS_27__unique_ptr_deleter_sfinaeISB_EEXT_EE20__good_rval_ref_typeE', symObjAddr: 0x6218, symBinAddr: 0x100008894, symSize: 0x48 }
  - { offsetInCU: 0x14E20, offset: 0x1940B, size: 0x8, addend: 0x0, symName: '__ZNSt3__117__compressed_pairIPNS_10__function6__funcIZNK6Matrix8subtractEiE3$_1NS_9allocatorIS4_EEFiiEEENS_22__allocator_destructorINS5_IS8_EEEEEC1B8ue170006IRS9_SC_EEOT_OT0_', symObjAddr: 0x6260, symBinAddr: 0x1000088DC, symSize: 0x3C }
  - { offsetInCU: 0x14E76, offset: 0x19461, size: 0x8, addend: 0x0, symName: '__ZNSt3__117__compressed_pairIPNS_10__function6__funcIZNK6Matrix8subtractEiE3$_1NS_9allocatorIS4_EEFiiEEENS_22__allocator_destructorINS5_IS8_EEEEEC2B8ue170006IRS9_SC_EEOT_OT0_', symObjAddr: 0x629C, symBinAddr: 0x100008918, symSize: 0x48 }
  - { offsetInCU: 0x14ECC, offset: 0x194B7, size: 0x8, addend: 0x0, symName: '__ZNSt3__122__compressed_pair_elemIPNS_10__function6__funcIZNK6Matrix8subtractEiE3$_1NS_9allocatorIS4_EEFiiEEELi0ELb0EEC2B8ue170006IRS9_vEEOT_', symObjAddr: 0x62E4, symBinAddr: 0x100008960, symSize: 0x24 }
  - { offsetInCU: 0x14F0C, offset: 0x194F7, size: 0x8, addend: 0x0, symName: '__ZNSt3__122__compressed_pair_elemINS_22__allocator_destructorINS_9allocatorINS_10__function6__funcIZNK6Matrix8subtractEiE3$_1NS2_IS6_EEFiiEEEEEEELi1ELb0EEC2B8ue170006ISB_vEEOT_', symObjAddr: 0x6308, symBinAddr: 0x100008984, symSize: 0x24 }
  - { offsetInCU: 0x14F4C, offset: 0x19537, size: 0x8, addend: 0x0, symName: '__ZNKSt3__117__compressed_pairIPNS_10__function6__funcIZNK6Matrix8subtractEiE3$_1NS_9allocatorIS4_EEFiiEEENS_22__allocator_destructorINS5_IS8_EEEEE5firstB8ue170006Ev', symObjAddr: 0x632C, symBinAddr: 0x1000089A8, symSize: 0x24 }
  - { offsetInCU: 0x14F70, offset: 0x1955B, size: 0x8, addend: 0x0, symName: '__ZNKSt3__122__compressed_pair_elemIPNS_10__function6__funcIZNK6Matrix8subtractEiE3$_1NS_9allocatorIS4_EEFiiEEELi0ELb0EE5__getB8ue170006Ev', symObjAddr: 0x6350, symBinAddr: 0x1000089CC, symSize: 0x14 }
  - { offsetInCU: 0x14F94, offset: 0x1957F, size: 0x8, addend: 0x0, symName: '__ZNKSt3__117__compressed_pairIZNK6Matrix8subtractEiE3$_1NS_9allocatorIS2_EEE5firstB8ue170006Ev', symObjAddr: 0x6364, symBinAddr: 0x1000089E0, symSize: 0x24 }
  - { offsetInCU: 0x14FB8, offset: 0x195A3, size: 0x8, addend: 0x0, symName: '__ZNKSt3__122__compressed_pair_elemIZNK6Matrix8subtractEiE3$_1Li0ELb0EE5__getB8ue170006Ev', symObjAddr: 0x6388, symBinAddr: 0x100008A04, symSize: 0x14 }
  - { offsetInCU: 0x14FDC, offset: 0x195C7, size: 0x8, addend: 0x0, symName: '__ZNSt3__110__function6__funcIZNK6Matrix8subtractEiE3$_1NS_9allocatorIS3_EEFiiEEC2B8ue170006ERKS3_OS5_', symObjAddr: 0x639C, symBinAddr: 0x100008A18, symSize: 0x88 }
  - { offsetInCU: 0x15022, offset: 0x1960D, size: 0x8, addend: 0x0, symName: '__ZNSt3__110__function12__alloc_funcIZNK6Matrix8subtractEiE3$_1NS_9allocatorIS3_EEFiiEEC1B8ue170006ERKS3_OS5_', symObjAddr: 0x6424, symBinAddr: 0x100008AA0, symSize: 0x3C }
  - { offsetInCU: 0x15066, offset: 0x19651, size: 0x8, addend: 0x0, symName: '__ZNSt3__110__function12__alloc_funcIZNK6Matrix8subtractEiE3$_1NS_9allocatorIS3_EEFiiEEC2B8ue170006ERKS3_OS5_', symObjAddr: 0x6460, symBinAddr: 0x100008ADC, symSize: 0x5C }
  - { offsetInCU: 0x150AA, offset: 0x19695, size: 0x8, addend: 0x0, symName: '__ZNSt3__117__compressed_pairIZNK6Matrix8subtractEiE3$_1NS_9allocatorIS2_EEEC1B8ue170006IJRKS2_EJOS4_EEENS_21piecewise_construct_tENS_5tupleIJDpT_EEENSB_IJDpT0_EEE', symObjAddr: 0x64E8, symBinAddr: 0x100008B64, symSize: 0x3C }
  - { offsetInCU: 0x15112, offset: 0x196FD, size: 0x8, addend: 0x0, symName: '__ZNSt3__15tupleIJRKZNK6Matrix8subtractEiE3$_1EEC1B8ue170006INS_4_AndELi0EEES4_', symObjAddr: 0x6524, symBinAddr: 0x100008BA0, symSize: 0x34 }
  - { offsetInCU: 0x1515A, offset: 0x19745, size: 0x8, addend: 0x0, symName: '__ZNSt3__15tupleIJRKZNK6Matrix8subtractEiE3$_1EEC2B8ue170006INS_4_AndELi0EEES4_', symObjAddr: 0x6558, symBinAddr: 0x100008BD4, symSize: 0x34 }
  - { offsetInCU: 0x151A2, offset: 0x1978D, size: 0x8, addend: 0x0, symName: '__ZNSt3__112__tuple_implINS_15__tuple_indicesIJLm0EEEEJRKZNK6Matrix8subtractEiE3$_1EEC1B8ue170006IJLm0EEJS6_EJEJEJS6_EEENS1_IJXspT_EEEENS_13__tuple_typesIJDpT0_EEENS1_IJXspT1_EEEENSA_IJDpT2_EEEDpOT3_', symObjAddr: 0x658C, symBinAddr: 0x100008C08, symSize: 0x34 }
  - { offsetInCU: 0x15232, offset: 0x1981D, size: 0x8, addend: 0x0, symName: '__ZNSt3__112__tuple_implINS_15__tuple_indicesIJLm0EEEEJRKZNK6Matrix8subtractEiE3$_1EEC2B8ue170006IJLm0EEJS6_EJEJEJS6_EEENS1_IJXspT_EEEENS_13__tuple_typesIJDpT0_EEENS1_IJXspT1_EEEENSA_IJDpT2_EEEDpOT3_', symObjAddr: 0x65C0, symBinAddr: 0x100008C3C, symSize: 0x34 }
  - { offsetInCU: 0x152C2, offset: 0x198AD, size: 0x8, addend: 0x0, symName: '__ZNSt3__112__tuple_leafILm0ERKZNK6Matrix8subtractEiE3$_1Lb0EEC2B8ue170006IS4_vEEOT_', symObjAddr: 0x65F4, symBinAddr: 0x100008C70, symSize: 0x20 }
  - { offsetInCU: 0x15303, offset: 0x198EE, size: 0x8, addend: 0x0, symName: '__ZNSt3__117__compressed_pairIZNK6Matrix8subtractEiE3$_1NS_9allocatorIS2_EEEC2B8ue170006IJRKS2_EJOS4_EEENS_21piecewise_construct_tENS_5tupleIJDpT_EEENSB_IJDpT0_EEE', symObjAddr: 0x6614, symBinAddr: 0x100008C90, symSize: 0x54 }
  - { offsetInCU: 0x1536B, offset: 0x19956, size: 0x8, addend: 0x0, symName: '__ZNSt3__122__compressed_pair_elemIZNK6Matrix8subtractEiE3$_1Li0ELb0EEC2B8ue170006IJRKS2_EJLm0EEEENS_21piecewise_construct_tENS_5tupleIJDpT_EEENS_15__tuple_indicesIJXspT0_EEEE', symObjAddr: 0x6668, symBinAddr: 0x100008CE4, symSize: 0x44 }
  - { offsetInCU: 0x153CF, offset: 0x199BA, size: 0x8, addend: 0x0, symName: '__ZNSt3__112__tuple_leafILm0ERKZNK6Matrix8subtractEiE3$_1Lb0EE3getB8ue170006Ev', symObjAddr: 0x66D0, symBinAddr: 0x100008D4C, symSize: 0x18 }
  - { offsetInCU: 0x153F3, offset: 0x199DE, size: 0x8, addend: 0x0, symName: '__ZNSt3__117__compressed_pairIPNS_10__function6__funcIZNK6Matrix8subtractEiE3$_1NS_9allocatorIS4_EEFiiEEENS_22__allocator_destructorINS5_IS8_EEEEE5firstB8ue170006Ev', symObjAddr: 0x66E8, symBinAddr: 0x100008D64, symSize: 0x24 }
  - { offsetInCU: 0x15417, offset: 0x19A02, size: 0x8, addend: 0x0, symName: '__ZNSt3__122__compressed_pair_elemIPNS_10__function6__funcIZNK6Matrix8subtractEiE3$_1NS_9allocatorIS4_EEFiiEEELi0ELb0EE5__getB8ue170006Ev', symObjAddr: 0x670C, symBinAddr: 0x100008D88, symSize: 0x14 }
  - { offsetInCU: 0x1543B, offset: 0x19A26, size: 0x8, addend: 0x0, symName: '__ZNSt3__110unique_ptrINS_10__function6__funcIZNK6Matrix8subtractEiE3$_1NS_9allocatorIS4_EEFiiEEENS_22__allocator_destructorINS5_IS8_EEEEED2B8ue170006Ev', symObjAddr: 0x6720, symBinAddr: 0x100008D9C, symSize: 0x30 }
  - { offsetInCU: 0x15463, offset: 0x19A4E, size: 0x8, addend: 0x0, symName: '__ZNSt3__110unique_ptrINS_10__function6__funcIZNK6Matrix8subtractEiE3$_1NS_9allocatorIS4_EEFiiEEENS_22__allocator_destructorINS5_IS8_EEEEE5resetB8ue170006EPS8_', symObjAddr: 0x6750, symBinAddr: 0x100008DCC, symSize: 0x78 }
  - { offsetInCU: 0x154A5, offset: 0x19A90, size: 0x8, addend: 0x0, symName: '__ZNSt3__117__compressed_pairIPNS_10__function6__funcIZNK6Matrix8subtractEiE3$_1NS_9allocatorIS4_EEFiiEEENS_22__allocator_destructorINS5_IS8_EEEEE6secondB8ue170006Ev', symObjAddr: 0x67C8, symBinAddr: 0x100008E44, symSize: 0x28 }
  - { offsetInCU: 0x154C9, offset: 0x19AB4, size: 0x8, addend: 0x0, symName: '__ZNSt3__122__allocator_destructorINS_9allocatorINS_10__function6__funcIZNK6Matrix8subtractEiE3$_1NS1_IS5_EEFiiEEEEEEclB8ue170006EPS8_', symObjAddr: 0x67F0, symBinAddr: 0x100008E6C, symSize: 0x34 }
  - { offsetInCU: 0x154FB, offset: 0x19AE6, size: 0x8, addend: 0x0, symName: '__ZNSt3__122__compressed_pair_elemINS_22__allocator_destructorINS_9allocatorINS_10__function6__funcIZNK6Matrix8subtractEiE3$_1NS2_IS6_EEFiiEEEEEEELi1ELb0EE5__getB8ue170006Ev', symObjAddr: 0x6824, symBinAddr: 0x100008EA0, symSize: 0x14 }
  - { offsetInCU: 0x1551F, offset: 0x19B0A, size: 0x8, addend: 0x0, symName: '__ZNSt3__116allocator_traitsINS_9allocatorINS_10__function6__funcIZNK6Matrix8subtractEiE3$_1NS1_IS5_EEFiiEEEEEE10deallocateB8ue170006ERS9_PS8_m', symObjAddr: 0x6838, symBinAddr: 0x100008EB4, symSize: 0x34 }
  - { offsetInCU: 0x15560, offset: 0x19B4B, size: 0x8, addend: 0x0, symName: '__ZNSt3__19allocatorINS_10__function6__funcIZNK6Matrix8subtractEiE3$_1NS0_IS4_EEFiiEEEE10deallocateB8ue170006EPS7_m', symObjAddr: 0x686C, symBinAddr: 0x100008EE8, symSize: 0x40 }
  - { offsetInCU: 0x155A0, offset: 0x19B8B, size: 0x8, addend: 0x0, symName: '__ZNSt3__110__function6__funcIZNK6Matrix8subtractEiE3$_1NS_9allocatorIS3_EEFiiEEC1B8ue170006ERKS3_RKS5_', symObjAddr: 0x68AC, symBinAddr: 0x100008F28, symSize: 0x3C }
  - { offsetInCU: 0x155E6, offset: 0x19BD1, size: 0x8, addend: 0x0, symName: '__ZNSt3__110__function6__funcIZNK6Matrix8subtractEiE3$_1NS_9allocatorIS3_EEFiiEEC2B8ue170006ERKS3_RKS5_', symObjAddr: 0x68E8, symBinAddr: 0x100008F64, symSize: 0x88 }
  - { offsetInCU: 0x1562C, offset: 0x19C17, size: 0x8, addend: 0x0, symName: '__ZNSt3__110__function12__alloc_funcIZNK6Matrix8subtractEiE3$_1NS_9allocatorIS3_EEFiiEEC1B8ue170006ERKS3_RKS5_', symObjAddr: 0x6970, symBinAddr: 0x100008FEC, symSize: 0x3C }
  - { offsetInCU: 0x15670, offset: 0x19C5B, size: 0x8, addend: 0x0, symName: '__ZNSt3__110__function12__alloc_funcIZNK6Matrix8subtractEiE3$_1NS_9allocatorIS3_EEFiiEEC2B8ue170006ERKS3_RKS5_', symObjAddr: 0x69AC, symBinAddr: 0x100009028, symSize: 0x5C }
  - { offsetInCU: 0x156B4, offset: 0x19C9F, size: 0x8, addend: 0x0, symName: '__ZNSt3__117__compressed_pairIZNK6Matrix8subtractEiE3$_1NS_9allocatorIS2_EEEC1B8ue170006IJRKS2_EJRKS4_EEENS_21piecewise_construct_tENS_5tupleIJDpT_EEENSC_IJDpT0_EEE', symObjAddr: 0x6A34, symBinAddr: 0x1000090B0, symSize: 0x3C }
  - { offsetInCU: 0x1571C, offset: 0x19D07, size: 0x8, addend: 0x0, symName: '__ZNSt3__15tupleIJRKNS_9allocatorIZNK6Matrix8subtractEiE3$_1EEEEC1B8ue170006INS_4_AndELi0EEES6_', symObjAddr: 0x6A70, symBinAddr: 0x1000090EC, symSize: 0x34 }
  - { offsetInCU: 0x15764, offset: 0x19D4F, size: 0x8, addend: 0x0, symName: '__ZNSt3__15tupleIJRKNS_9allocatorIZNK6Matrix8subtractEiE3$_1EEEEC2B8ue170006INS_4_AndELi0EEES6_', symObjAddr: 0x6AA4, symBinAddr: 0x100009120, symSize: 0x34 }
  - { offsetInCU: 0x157AC, offset: 0x19D97, size: 0x8, addend: 0x0, symName: '__ZNSt3__112__tuple_implINS_15__tuple_indicesIJLm0EEEEJRKNS_9allocatorIZNK6Matrix8subtractEiE3$_1EEEEC1B8ue170006IJLm0EEJS8_EJEJEJS8_EEENS1_IJXspT_EEEENS_13__tuple_typesIJDpT0_EEENS1_IJXspT1_EEEENSC_IJDpT2_EEEDpOT3_', symObjAddr: 0x6AD8, symBinAddr: 0x100009154, symSize: 0x34 }
  - { offsetInCU: 0x1583C, offset: 0x19E27, size: 0x8, addend: 0x0, symName: '__ZNSt3__112__tuple_implINS_15__tuple_indicesIJLm0EEEEJRKNS_9allocatorIZNK6Matrix8subtractEiE3$_1EEEEC2B8ue170006IJLm0EEJS8_EJEJEJS8_EEENS1_IJXspT_EEEENS_13__tuple_typesIJDpT0_EEENS1_IJXspT1_EEEENSC_IJDpT2_EEEDpOT3_', symObjAddr: 0x6B0C, symBinAddr: 0x100009188, symSize: 0x34 }
  - { offsetInCU: 0x158CC, offset: 0x19EB7, size: 0x8, addend: 0x0, symName: '__ZNSt3__112__tuple_leafILm0ERKNS_9allocatorIZNK6Matrix8subtractEiE3$_1EELb0EEC2B8ue170006IS6_vEEOT_', symObjAddr: 0x6B40, symBinAddr: 0x1000091BC, symSize: 0x20 }
  - { offsetInCU: 0x1590D, offset: 0x19EF8, size: 0x8, addend: 0x0, symName: '__ZNSt3__117__compressed_pairIZNK6Matrix8subtractEiE3$_1NS_9allocatorIS2_EEEC2B8ue170006IJRKS2_EJRKS4_EEENS_21piecewise_construct_tENS_5tupleIJDpT_EEENSC_IJDpT0_EEE', symObjAddr: 0x6B60, symBinAddr: 0x1000091DC, symSize: 0x54 }
  - { offsetInCU: 0x15975, offset: 0x19F60, size: 0x8, addend: 0x0, symName: '__ZNSt3__122__compressed_pair_elemINS_9allocatorIZNK6Matrix8subtractEiE3$_1EELi1ELb1EEC2B8ue170006IJRKS4_EJLm0EEEENS_21piecewise_construct_tENS_5tupleIJDpT_EEENS_15__tuple_indicesIJXspT0_EEEE', symObjAddr: 0x6BB4, symBinAddr: 0x100009230, symSize: 0x38 }
  - { offsetInCU: 0x159D9, offset: 0x19FC4, size: 0x8, addend: 0x0, symName: '__ZNSt3__112__tuple_leafILm0ERKNS_9allocatorIZNK6Matrix8subtractEiE3$_1EELb0EE3getB8ue170006Ev', symObjAddr: 0x6C10, symBinAddr: 0x10000928C, symSize: 0x18 }
  - { offsetInCU: 0x159FD, offset: 0x19FE8, size: 0x8, addend: 0x0, symName: '__ZNSt3__110__function12__alloc_funcIZNK6Matrix8subtractEiE3$_1NS_9allocatorIS3_EEFiiEE7destroyB8ue170006Ev', symObjAddr: 0x6C28, symBinAddr: 0x1000092A4, symSize: 0x10 }
  - { offsetInCU: 0x15A21, offset: 0x1A00C, size: 0x8, addend: 0x0, symName: '__ZNSt3__110__function12__alloc_funcIZNK6Matrix8subtractEiE3$_1NS_9allocatorIS3_EEFiiEEclB8ue170006EOi', symObjAddr: 0x6C38, symBinAddr: 0x1000092B4, symSize: 0x30 }
  - { offsetInCU: 0x15A53, offset: 0x1A03E, size: 0x8, addend: 0x0, symName: '__ZNSt3__128__invoke_void_return_wrapperIiLb0EE6__callB8ue170006IJRZNK6Matrix8subtractEiE3$_1iEEEiDpOT_', symObjAddr: 0x6C68, symBinAddr: 0x1000092E4, symSize: 0x2C }
  - { offsetInCU: 0x15A95, offset: 0x1A080, size: 0x8, addend: 0x0, symName: '__ZNSt3__117__compressed_pairIZNK6Matrix8subtractEiE3$_1NS_9allocatorIS2_EEE5firstB8ue170006Ev', symObjAddr: 0x6C94, symBinAddr: 0x100009310, symSize: 0x24 }
  - { offsetInCU: 0x15ABE, offset: 0x1A0A9, size: 0x8, addend: 0x0, symName: '__ZZNK6Matrix8subtractEiENK3$_1clEi', symObjAddr: 0x6CE8, symBinAddr: 0x100009364, symSize: 0x24 }
  - { offsetInCU: 0x15AF4, offset: 0x1A0DF, size: 0x8, addend: 0x0, symName: '__ZNSt3__122__compressed_pair_elemIZNK6Matrix8subtractEiE3$_1Li0ELb0EE5__getB8ue170006Ev', symObjAddr: 0x6D0C, symBinAddr: 0x100009388, symSize: 0x14 }
  - { offsetInCU: 0x15B18, offset: 0x1A103, size: 0x8, addend: 0x0, symName: '__ZNSt3__18functionIFiiEEC2IZNK6Matrix8multiplyEiE3$_2vEET_', symObjAddr: 0x6D20, symBinAddr: 0x10000939C, symSize: 0x38 }
  - { offsetInCU: 0x15B5C, offset: 0x1A147, size: 0x8, addend: 0x0, symName: '__ZNSt3__110__function12__value_funcIFiiEEC1B8ue170006IZNK6Matrix8multiplyEiE3$_2vEEOT_', symObjAddr: 0x6D58, symBinAddr: 0x1000093D4, symSize: 0x50 }
  - { offsetInCU: 0x15B9D, offset: 0x1A188, size: 0x8, addend: 0x0, symName: '__ZNSt3__19allocatorIZNK6Matrix8multiplyEiE3$_2EC1B8ue170006Ev', symObjAddr: 0x6DA8, symBinAddr: 0x100009424, symSize: 0x2C }
  - { offsetInCU: 0x15BC5, offset: 0x1A1B0, size: 0x8, addend: 0x0, symName: '__ZNSt3__110__function12__value_funcIFiiEEC1B8ue170006IZNK6Matrix8multiplyEiE3$_2NS_9allocatorIS6_EEEEOT_RKT0_', symObjAddr: 0x6DD4, symBinAddr: 0x100009450, symSize: 0x3C }
  - { offsetInCU: 0x15C1D, offset: 0x1A208, size: 0x8, addend: 0x0, symName: '__ZNSt3__19allocatorIZNK6Matrix8multiplyEiE3$_2EC2B8ue170006Ev', symObjAddr: 0x6E10, symBinAddr: 0x10000948C, symSize: 0x2C }
  - { offsetInCU: 0x15C45, offset: 0x1A230, size: 0x8, addend: 0x0, symName: '__ZNSt3__116__non_trivial_ifILb1ENS_9allocatorIZNK6Matrix8multiplyEiE3$_2EEEC2B8ue170006Ev', symObjAddr: 0x6E3C, symBinAddr: 0x1000094B8, symSize: 0x14 }
  - { offsetInCU: 0x15C6D, offset: 0x1A258, size: 0x8, addend: 0x0, symName: '__ZNSt3__110__function12__value_funcIFiiEEC2B8ue170006IZNK6Matrix8multiplyEiE3$_2NS_9allocatorIS6_EEEEOT_RKT0_', symObjAddr: 0x6E50, symBinAddr: 0x1000094CC, symSize: 0x94 }
  - { offsetInCU: 0x15D12, offset: 0x1A2FD, size: 0x8, addend: 0x0, symName: '__ZNSt3__19allocatorINS_10__function6__funcIZNK6Matrix8multiplyEiE3$_2NS0_IS4_EEFiiEEEEC1B8ue170006IS4_EERKNS0_IT_EE', symObjAddr: 0x6EFC, symBinAddr: 0x100009578, symSize: 0x34 }
  - { offsetInCU: 0x15D53, offset: 0x1A33E, size: 0x8, addend: 0x0, symName: '__ZNSt3__19allocatorIZNK6Matrix8multiplyEiE3$_2EC1B8ue170006INS_10__function6__funcIS2_S3_FiiEEEEERKNS0_IT_EE', symObjAddr: 0x6F30, symBinAddr: 0x1000095AC, symSize: 0x34 }
  - { offsetInCU: 0x15D8F, offset: 0x1A37A, size: 0x8, addend: 0x0, symName: '__ZNSt3__110__function6__funcIZNK6Matrix8multiplyEiE3$_2NS_9allocatorIS3_EEFiiEEC1B8ue170006EOS3_OS5_', symObjAddr: 0x6F64, symBinAddr: 0x1000095E0, symSize: 0x3C }
  - { offsetInCU: 0x15DD5, offset: 0x1A3C0, size: 0x8, addend: 0x0, symName: '__ZNSt3__19allocatorINS_10__function6__funcIZNK6Matrix8multiplyEiE3$_2NS0_IS4_EEFiiEEEEC2B8ue170006IS4_EERKNS0_IT_EE', symObjAddr: 0x6FA0, symBinAddr: 0x10000961C, symSize: 0x30 }
  - { offsetInCU: 0x15E11, offset: 0x1A3FC, size: 0x8, addend: 0x0, symName: '__ZNSt3__116__non_trivial_ifILb1ENS_9allocatorINS_10__function6__funcIZNK6Matrix8multiplyEiE3$_2NS1_IS5_EEFiiEEEEEEC2B8ue170006Ev', symObjAddr: 0x6FD0, symBinAddr: 0x10000964C, symSize: 0x14 }
  - { offsetInCU: 0x15E39, offset: 0x1A424, size: 0x8, addend: 0x0, symName: '__ZNSt3__19allocatorIZNK6Matrix8multiplyEiE3$_2EC2B8ue170006INS_10__function6__funcIS2_S3_FiiEEEEERKNS0_IT_EE', symObjAddr: 0x6FE4, symBinAddr: 0x100009660, symSize: 0x30 }
  - { offsetInCU: 0x15E75, offset: 0x1A460, size: 0x8, addend: 0x0, symName: '__ZNSt3__110__function6__funcIZNK6Matrix8multiplyEiE3$_2NS_9allocatorIS3_EEFiiEEC2B8ue170006EOS3_OS5_', symObjAddr: 0x7014, symBinAddr: 0x100009690, symSize: 0x88 }
  - { offsetInCU: 0x15EBB, offset: 0x1A4A6, size: 0x8, addend: 0x0, symName: '__ZNSt3__110__function12__alloc_funcIZNK6Matrix8multiplyEiE3$_2NS_9allocatorIS3_EEFiiEEC1B8ue170006EOS3_OS5_', symObjAddr: 0x709C, symBinAddr: 0x100009718, symSize: 0x3C }
  - { offsetInCU: 0x15EFF, offset: 0x1A4EA, size: 0x8, addend: 0x0, symName: '__ZNSt3__110__function6__funcIZNK6Matrix8multiplyEiE3$_2NS_9allocatorIS3_EEFiiEED1Ev', symObjAddr: 0x70D8, symBinAddr: 0x100009754, symSize: 0x2C }
  - { offsetInCU: 0x15F2B, offset: 0x1A516, size: 0x8, addend: 0x0, symName: '__ZNSt3__110__function6__funcIZNK6Matrix8multiplyEiE3$_2NS_9allocatorIS3_EEFiiEED0Ev', symObjAddr: 0x7104, symBinAddr: 0x100009780, symSize: 0x30 }
  - { offsetInCU: 0x15F57, offset: 0x1A542, size: 0x8, addend: 0x0, symName: '__ZNKSt3__110__function6__funcIZNK6Matrix8multiplyEiE3$_2NS_9allocatorIS3_EEFiiEE7__cloneEv', symObjAddr: 0x7134, symBinAddr: 0x1000097B0, symSize: 0xFC }
  - { offsetInCU: 0x15FA8, offset: 0x1A593, size: 0x8, addend: 0x0, symName: '__ZNKSt3__110__function6__funcIZNK6Matrix8multiplyEiE3$_2NS_9allocatorIS3_EEFiiEE7__cloneEPNS0_6__baseIS6_EE', symObjAddr: 0x7230, symBinAddr: 0x1000098AC, symSize: 0x58 }
  - { offsetInCU: 0x15FDE, offset: 0x1A5C9, size: 0x8, addend: 0x0, symName: '__ZNSt3__110__function6__funcIZNK6Matrix8multiplyEiE3$_2NS_9allocatorIS3_EEFiiEE7destroyEv', symObjAddr: 0x7288, symBinAddr: 0x100009904, symSize: 0x28 }
  - { offsetInCU: 0x16005, offset: 0x1A5F0, size: 0x8, addend: 0x0, symName: '__ZNSt3__110__function6__funcIZNK6Matrix8multiplyEiE3$_2NS_9allocatorIS3_EEFiiEE18destroy_deallocateEv', symObjAddr: 0x72B0, symBinAddr: 0x10000992C, symSize: 0x58 }
  - { offsetInCU: 0x16047, offset: 0x1A632, size: 0x8, addend: 0x0, symName: '__ZNSt3__110__function6__funcIZNK6Matrix8multiplyEiE3$_2NS_9allocatorIS3_EEFiiEEclEOi', symObjAddr: 0x7308, symBinAddr: 0x100009984, symSize: 0x30 }
  - { offsetInCU: 0x1607D, offset: 0x1A668, size: 0x8, addend: 0x0, symName: '__ZNKSt3__110__function6__funcIZNK6Matrix8multiplyEiE3$_2NS_9allocatorIS3_EEFiiEE6targetERKSt9type_info', symObjAddr: 0x7338, symBinAddr: 0x1000099B4, symSize: 0x60 }
  - { offsetInCU: 0x160B3, offset: 0x1A69E, size: 0x8, addend: 0x0, symName: '__ZNKSt3__110__function6__funcIZNK6Matrix8multiplyEiE3$_2NS_9allocatorIS3_EEFiiEE11target_typeEv', symObjAddr: 0x7398, symBinAddr: 0x100009A14, symSize: 0x18 }
  - { offsetInCU: 0x160D9, offset: 0x1A6C4, size: 0x8, addend: 0x0, symName: '__ZNSt3__110__function12__alloc_funcIZNK6Matrix8multiplyEiE3$_2NS_9allocatorIS3_EEFiiEEC2B8ue170006EOS3_OS5_', symObjAddr: 0x73B0, symBinAddr: 0x100009A2C, symSize: 0x5C }
  - { offsetInCU: 0x1611D, offset: 0x1A708, size: 0x8, addend: 0x0, symName: '__ZNSt3__117__compressed_pairIZNK6Matrix8multiplyEiE3$_2NS_9allocatorIS2_EEEC1B8ue170006IJOS2_EJOS4_EEENS_21piecewise_construct_tENS_5tupleIJDpT_EEENSA_IJDpT0_EEE', symObjAddr: 0x7464, symBinAddr: 0x100009AE0, symSize: 0x3C }
  - { offsetInCU: 0x16185, offset: 0x1A770, size: 0x8, addend: 0x0, symName: '__ZNSt3__15tupleIJOZNK6Matrix8multiplyEiE3$_2EEC1B8ue170006IJS2_ELi0EEEDpOT_', symObjAddr: 0x74A0, symBinAddr: 0x100009B1C, symSize: 0x34 }
  - { offsetInCU: 0x161CE, offset: 0x1A7B9, size: 0x8, addend: 0x0, symName: '__ZNSt3__15tupleIJOZNK6Matrix8multiplyEiE3$_2EEC2B8ue170006IJS2_ELi0EEEDpOT_', symObjAddr: 0x74D4, symBinAddr: 0x100009B50, symSize: 0x34 }
  - { offsetInCU: 0x16217, offset: 0x1A802, size: 0x8, addend: 0x0, symName: '__ZNSt3__112__tuple_implINS_15__tuple_indicesIJLm0EEEEJOZNK6Matrix8multiplyEiE3$_2EEC1B8ue170006IJLm0EEJS5_EJEJEJS4_EEENS1_IJXspT_EEEENS_13__tuple_typesIJDpT0_EEENS1_IJXspT1_EEEENS9_IJDpT2_EEEDpOT3_', symObjAddr: 0x7508, symBinAddr: 0x100009B84, symSize: 0x34 }
  - { offsetInCU: 0x162A7, offset: 0x1A892, size: 0x8, addend: 0x0, symName: '__ZNSt3__112__tuple_implINS_15__tuple_indicesIJLm0EEEEJOZNK6Matrix8multiplyEiE3$_2EEC2B8ue170006IJLm0EEJS5_EJEJEJS4_EEENS1_IJXspT_EEEENS_13__tuple_typesIJDpT0_EEENS1_IJXspT1_EEEENS9_IJDpT2_EEEDpOT3_', symObjAddr: 0x753C, symBinAddr: 0x100009BB8, symSize: 0x34 }
  - { offsetInCU: 0x16337, offset: 0x1A922, size: 0x8, addend: 0x0, symName: '__ZNSt3__112__tuple_leafILm0EOZNK6Matrix8multiplyEiE3$_2Lb0EEC2B8ue170006IS2_vEEOT_', symObjAddr: 0x7570, symBinAddr: 0x100009BEC, symSize: 0x20 }
  - { offsetInCU: 0x16378, offset: 0x1A963, size: 0x8, addend: 0x0, symName: '__ZNSt3__15tupleIJONS_9allocatorIZNK6Matrix8multiplyEiE3$_2EEEEC1B8ue170006IJS4_ELi0EEEDpOT_', symObjAddr: 0x7590, symBinAddr: 0x100009C0C, symSize: 0x34 }
  - { offsetInCU: 0x163C1, offset: 0x1A9AC, size: 0x8, addend: 0x0, symName: '__ZNSt3__15tupleIJONS_9allocatorIZNK6Matrix8multiplyEiE3$_2EEEEC2B8ue170006IJS4_ELi0EEEDpOT_', symObjAddr: 0x75C4, symBinAddr: 0x100009C40, symSize: 0x34 }
  - { offsetInCU: 0x1640A, offset: 0x1A9F5, size: 0x8, addend: 0x0, symName: '__ZNSt3__112__tuple_implINS_15__tuple_indicesIJLm0EEEEJONS_9allocatorIZNK6Matrix8multiplyEiE3$_2EEEEC1B8ue170006IJLm0EEJS7_EJEJEJS6_EEENS1_IJXspT_EEEENS_13__tuple_typesIJDpT0_EEENS1_IJXspT1_EEEENSB_IJDpT2_EEEDpOT3_', symObjAddr: 0x75F8, symBinAddr: 0x100009C74, symSize: 0x34 }
  - { offsetInCU: 0x1649A, offset: 0x1AA85, size: 0x8, addend: 0x0, symName: '__ZNSt3__112__tuple_implINS_15__tuple_indicesIJLm0EEEEJONS_9allocatorIZNK6Matrix8multiplyEiE3$_2EEEEC2B8ue170006IJLm0EEJS7_EJEJEJS6_EEENS1_IJXspT_EEEENS_13__tuple_typesIJDpT0_EEENS1_IJXspT1_EEEENSB_IJDpT2_EEEDpOT3_', symObjAddr: 0x762C, symBinAddr: 0x100009CA8, symSize: 0x34 }
  - { offsetInCU: 0x1652A, offset: 0x1AB15, size: 0x8, addend: 0x0, symName: '__ZNSt3__112__tuple_leafILm0EONS_9allocatorIZNK6Matrix8multiplyEiE3$_2EELb0EEC2B8ue170006IS4_vEEOT_', symObjAddr: 0x7660, symBinAddr: 0x100009CDC, symSize: 0x20 }
  - { offsetInCU: 0x1656B, offset: 0x1AB56, size: 0x8, addend: 0x0, symName: '__ZNSt3__117__compressed_pairIZNK6Matrix8multiplyEiE3$_2NS_9allocatorIS2_EEEC2B8ue170006IJOS2_EJOS4_EEENS_21piecewise_construct_tENS_5tupleIJDpT_EEENSA_IJDpT0_EEE', symObjAddr: 0x7680, symBinAddr: 0x100009CFC, symSize: 0x54 }
  - { offsetInCU: 0x165D3, offset: 0x1ABBE, size: 0x8, addend: 0x0, symName: '__ZNSt3__122__compressed_pair_elemIZNK6Matrix8multiplyEiE3$_2Li0ELb0EEC2B8ue170006IJOS2_EJLm0EEEENS_21piecewise_construct_tENS_5tupleIJDpT_EEENS_15__tuple_indicesIJXspT0_EEEE', symObjAddr: 0x76D4, symBinAddr: 0x100009D50, symSize: 0x44 }
  - { offsetInCU: 0x16637, offset: 0x1AC22, size: 0x8, addend: 0x0, symName: '__ZNSt3__122__compressed_pair_elemINS_9allocatorIZNK6Matrix8multiplyEiE3$_2EELi1ELb1EEC2B8ue170006IJOS4_EJLm0EEEENS_21piecewise_construct_tENS_5tupleIJDpT_EEENS_15__tuple_indicesIJXspT0_EEEE', symObjAddr: 0x7718, symBinAddr: 0x100009D94, symSize: 0x38 }
  - { offsetInCU: 0x1669B, offset: 0x1AC86, size: 0x8, addend: 0x0, symName: '__ZNSt3__112__tuple_leafILm0EOZNK6Matrix8multiplyEiE3$_2Lb0EE3getB8ue170006Ev', symObjAddr: 0x7774, symBinAddr: 0x100009DF0, symSize: 0x18 }
  - { offsetInCU: 0x166BF, offset: 0x1ACAA, size: 0x8, addend: 0x0, symName: '__ZNSt3__112__tuple_leafILm0EONS_9allocatorIZNK6Matrix8multiplyEiE3$_2EELb0EE3getB8ue170006Ev', symObjAddr: 0x77B0, symBinAddr: 0x100009E2C, symSize: 0x18 }
  - { offsetInCU: 0x166E3, offset: 0x1ACCE, size: 0x8, addend: 0x0, symName: '__ZNSt3__110__function6__funcIZNK6Matrix8multiplyEiE3$_2NS_9allocatorIS3_EEFiiEED2Ev', symObjAddr: 0x77C8, symBinAddr: 0x100009E44, symSize: 0x2C }
  - { offsetInCU: 0x1670F, offset: 0x1ACFA, size: 0x8, addend: 0x0, symName: '__ZNKSt3__110__function12__alloc_funcIZNK6Matrix8multiplyEiE3$_2NS_9allocatorIS3_EEFiiEE15__get_allocatorB8ue170006Ev', symObjAddr: 0x77F4, symBinAddr: 0x100009E70, symSize: 0x24 }
  - { offsetInCU: 0x16733, offset: 0x1AD1E, size: 0x8, addend: 0x0, symName: '__ZNSt3__19allocatorINS_10__function6__funcIZNK6Matrix8multiplyEiE3$_2NS0_IS4_EEFiiEEEE8allocateB8ue170006Em', symObjAddr: 0x7818, symBinAddr: 0x100009E94, symSize: 0x58 }
  - { offsetInCU: 0x16774, offset: 0x1AD5F, size: 0x8, addend: 0x0, symName: '__ZNSt3__122__allocator_destructorINS_9allocatorINS_10__function6__funcIZNK6Matrix8multiplyEiE3$_2NS1_IS5_EEFiiEEEEEEC1B8ue170006ERS9_m', symObjAddr: 0x7870, symBinAddr: 0x100009EEC, symSize: 0x3C }
  - { offsetInCU: 0x16844, offset: 0x1AE2F, size: 0x8, addend: 0x0, symName: '__ZNSt3__110unique_ptrINS_10__function6__funcIZNK6Matrix8multiplyEiE3$_2NS_9allocatorIS4_EEFiiEEENS_22__allocator_destructorINS5_IS8_EEEEEC1B8ue170006ILb1EvEEPS8_NS_16__dependent_typeINS_27__unique_ptr_deleter_sfinaeISB_EEXT_EE20__good_rval_ref_typeE', symObjAddr: 0x78AC, symBinAddr: 0x100009F28, symSize: 0x3C }
  - { offsetInCU: 0x16893, offset: 0x1AE7E, size: 0x8, addend: 0x0, symName: '__ZNKSt3__110unique_ptrINS_10__function6__funcIZNK6Matrix8multiplyEiE3$_2NS_9allocatorIS4_EEFiiEEENS_22__allocator_destructorINS5_IS8_EEEEE3getB8ue170006Ev', symObjAddr: 0x78E8, symBinAddr: 0x100009F64, symSize: 0x28 }
  - { offsetInCU: 0x168B7, offset: 0x1AEA2, size: 0x8, addend: 0x0, symName: '__ZNKSt3__110__function12__alloc_funcIZNK6Matrix8multiplyEiE3$_2NS_9allocatorIS3_EEFiiEE8__targetB8ue170006Ev', symObjAddr: 0x7910, symBinAddr: 0x100009F8C, symSize: 0x24 }
  - { offsetInCU: 0x168DB, offset: 0x1AEC6, size: 0x8, addend: 0x0, symName: '__ZNSt3__110__function6__funcIZNK6Matrix8multiplyEiE3$_2NS_9allocatorIS3_EEFiiEEC1B8ue170006ERKS3_OS5_', symObjAddr: 0x7934, symBinAddr: 0x100009FB0, symSize: 0x3C }
  - { offsetInCU: 0x16921, offset: 0x1AF0C, size: 0x8, addend: 0x0, symName: '__ZNSt3__110unique_ptrINS_10__function6__funcIZNK6Matrix8multiplyEiE3$_2NS_9allocatorIS4_EEFiiEEENS_22__allocator_destructorINS5_IS8_EEEEE7releaseB8ue170006Ev', symObjAddr: 0x7970, symBinAddr: 0x100009FEC, symSize: 0x44 }
  - { offsetInCU: 0x16954, offset: 0x1AF3F, size: 0x8, addend: 0x0, symName: '__ZNSt3__110unique_ptrINS_10__function6__funcIZNK6Matrix8multiplyEiE3$_2NS_9allocatorIS4_EEFiiEEENS_22__allocator_destructorINS5_IS8_EEEEED1B8ue170006Ev', symObjAddr: 0x79B4, symBinAddr: 0x10000A030, symSize: 0x2C }
  - { offsetInCU: 0x1697C, offset: 0x1AF67, size: 0x8, addend: 0x0, symName: '__ZNKSt3__117__compressed_pairIZNK6Matrix8multiplyEiE3$_2NS_9allocatorIS2_EEE6secondB8ue170006Ev', symObjAddr: 0x79E0, symBinAddr: 0x10000A05C, symSize: 0x24 }
  - { offsetInCU: 0x169A0, offset: 0x1AF8B, size: 0x8, addend: 0x0, symName: '__ZNKSt3__122__compressed_pair_elemINS_9allocatorIZNK6Matrix8multiplyEiE3$_2EELi1ELb1EE5__getB8ue170006Ev', symObjAddr: 0x7A04, symBinAddr: 0x10000A080, symSize: 0x14 }
  - { offsetInCU: 0x169CE, offset: 0x1AFB9, size: 0x8, addend: 0x0, symName: '__ZNSt3__116allocator_traitsINS_9allocatorINS_10__function6__funcIZNK6Matrix8multiplyEiE3$_2NS1_IS5_EEFiiEEEEEE8max_sizeB8ue170006IS9_vEEmRKS9_', symObjAddr: 0x7A18, symBinAddr: 0x10000A094, symSize: 0x24 }
  - { offsetInCU: 0x169FB, offset: 0x1AFE6, size: 0x8, addend: 0x0, symName: '__ZNKSt3__19allocatorINS_10__function6__funcIZNK6Matrix8multiplyEiE3$_2NS0_IS4_EEFiiEEEE8max_sizeB8ue170006Ev', symObjAddr: 0x7A3C, symBinAddr: 0x10000A0B8, symSize: 0x14 }
  - { offsetInCU: 0x16A1F, offset: 0x1B00A, size: 0x8, addend: 0x0, symName: '__ZNSt3__122__allocator_destructorINS_9allocatorINS_10__function6__funcIZNK6Matrix8multiplyEiE3$_2NS1_IS5_EEFiiEEEEEEC2B8ue170006ERS9_m', symObjAddr: 0x7A50, symBinAddr: 0x10000A0CC, symSize: 0x2C }
  - { offsetInCU: 0x16A63, offset: 0x1B04E, size: 0x8, addend: 0x0, symName: '__ZNSt3__110unique_ptrINS_10__function6__funcIZNK6Matrix8multiplyEiE3$_2NS_9allocatorIS4_EEFiiEEENS_22__allocator_destructorINS5_IS8_EEEEEC2B8ue170006ILb1EvEEPS8_NS_16__dependent_typeINS_27__unique_ptr_deleter_sfinaeISB_EEXT_EE20__good_rval_ref_typeE', symObjAddr: 0x7A7C, symBinAddr: 0x10000A0F8, symSize: 0x48 }
  - { offsetInCU: 0x16AB2, offset: 0x1B09D, size: 0x8, addend: 0x0, symName: '__ZNSt3__117__compressed_pairIPNS_10__function6__funcIZNK6Matrix8multiplyEiE3$_2NS_9allocatorIS4_EEFiiEEENS_22__allocator_destructorINS5_IS8_EEEEEC1B8ue170006IRS9_SC_EEOT_OT0_', symObjAddr: 0x7AC4, symBinAddr: 0x10000A140, symSize: 0x3C }
  - { offsetInCU: 0x16B08, offset: 0x1B0F3, size: 0x8, addend: 0x0, symName: '__ZNSt3__117__compressed_pairIPNS_10__function6__funcIZNK6Matrix8multiplyEiE3$_2NS_9allocatorIS4_EEFiiEEENS_22__allocator_destructorINS5_IS8_EEEEEC2B8ue170006IRS9_SC_EEOT_OT0_', symObjAddr: 0x7B00, symBinAddr: 0x10000A17C, symSize: 0x48 }
  - { offsetInCU: 0x16B5E, offset: 0x1B149, size: 0x8, addend: 0x0, symName: '__ZNSt3__122__compressed_pair_elemIPNS_10__function6__funcIZNK6Matrix8multiplyEiE3$_2NS_9allocatorIS4_EEFiiEEELi0ELb0EEC2B8ue170006IRS9_vEEOT_', symObjAddr: 0x7B48, symBinAddr: 0x10000A1C4, symSize: 0x24 }
  - { offsetInCU: 0x16B9E, offset: 0x1B189, size: 0x8, addend: 0x0, symName: '__ZNSt3__122__compressed_pair_elemINS_22__allocator_destructorINS_9allocatorINS_10__function6__funcIZNK6Matrix8multiplyEiE3$_2NS2_IS6_EEFiiEEEEEEELi1ELb0EEC2B8ue170006ISB_vEEOT_', symObjAddr: 0x7B6C, symBinAddr: 0x10000A1E8, symSize: 0x24 }
  - { offsetInCU: 0x16BDE, offset: 0x1B1C9, size: 0x8, addend: 0x0, symName: '__ZNKSt3__117__compressed_pairIPNS_10__function6__funcIZNK6Matrix8multiplyEiE3$_2NS_9allocatorIS4_EEFiiEEENS_22__allocator_destructorINS5_IS8_EEEEE5firstB8ue170006Ev', symObjAddr: 0x7B90, symBinAddr: 0x10000A20C, symSize: 0x24 }
  - { offsetInCU: 0x16C02, offset: 0x1B1ED, size: 0x8, addend: 0x0, symName: '__ZNKSt3__122__compressed_pair_elemIPNS_10__function6__funcIZNK6Matrix8multiplyEiE3$_2NS_9allocatorIS4_EEFiiEEELi0ELb0EE5__getB8ue170006Ev', symObjAddr: 0x7BB4, symBinAddr: 0x10000A230, symSize: 0x14 }
  - { offsetInCU: 0x16C26, offset: 0x1B211, size: 0x8, addend: 0x0, symName: '__ZNKSt3__117__compressed_pairIZNK6Matrix8multiplyEiE3$_2NS_9allocatorIS2_EEE5firstB8ue170006Ev', symObjAddr: 0x7BC8, symBinAddr: 0x10000A244, symSize: 0x24 }
  - { offsetInCU: 0x16C4A, offset: 0x1B235, size: 0x8, addend: 0x0, symName: '__ZNKSt3__122__compressed_pair_elemIZNK6Matrix8multiplyEiE3$_2Li0ELb0EE5__getB8ue170006Ev', symObjAddr: 0x7BEC, symBinAddr: 0x10000A268, symSize: 0x14 }
  - { offsetInCU: 0x16C6E, offset: 0x1B259, size: 0x8, addend: 0x0, symName: '__ZNSt3__110__function6__funcIZNK6Matrix8multiplyEiE3$_2NS_9allocatorIS3_EEFiiEEC2B8ue170006ERKS3_OS5_', symObjAddr: 0x7C00, symBinAddr: 0x10000A27C, symSize: 0x88 }
  - { offsetInCU: 0x16CB4, offset: 0x1B29F, size: 0x8, addend: 0x0, symName: '__ZNSt3__110__function12__alloc_funcIZNK6Matrix8multiplyEiE3$_2NS_9allocatorIS3_EEFiiEEC1B8ue170006ERKS3_OS5_', symObjAddr: 0x7C88, symBinAddr: 0x10000A304, symSize: 0x3C }
  - { offsetInCU: 0x16CF8, offset: 0x1B2E3, size: 0x8, addend: 0x0, symName: '__ZNSt3__110__function12__alloc_funcIZNK6Matrix8multiplyEiE3$_2NS_9allocatorIS3_EEFiiEEC2B8ue170006ERKS3_OS5_', symObjAddr: 0x7CC4, symBinAddr: 0x10000A340, symSize: 0x5C }
  - { offsetInCU: 0x16D3C, offset: 0x1B327, size: 0x8, addend: 0x0, symName: '__ZNSt3__117__compressed_pairIZNK6Matrix8multiplyEiE3$_2NS_9allocatorIS2_EEEC1B8ue170006IJRKS2_EJOS4_EEENS_21piecewise_construct_tENS_5tupleIJDpT_EEENSB_IJDpT0_EEE', symObjAddr: 0x7D4C, symBinAddr: 0x10000A3C8, symSize: 0x3C }
  - { offsetInCU: 0x16DA4, offset: 0x1B38F, size: 0x8, addend: 0x0, symName: '__ZNSt3__15tupleIJRKZNK6Matrix8multiplyEiE3$_2EEC1B8ue170006INS_4_AndELi0EEES4_', symObjAddr: 0x7D88, symBinAddr: 0x10000A404, symSize: 0x34 }
  - { offsetInCU: 0x16DEC, offset: 0x1B3D7, size: 0x8, addend: 0x0, symName: '__ZNSt3__15tupleIJRKZNK6Matrix8multiplyEiE3$_2EEC2B8ue170006INS_4_AndELi0EEES4_', symObjAddr: 0x7DBC, symBinAddr: 0x10000A438, symSize: 0x34 }
  - { offsetInCU: 0x16E34, offset: 0x1B41F, size: 0x8, addend: 0x0, symName: '__ZNSt3__112__tuple_implINS_15__tuple_indicesIJLm0EEEEJRKZNK6Matrix8multiplyEiE3$_2EEC1B8ue170006IJLm0EEJS6_EJEJEJS6_EEENS1_IJXspT_EEEENS_13__tuple_typesIJDpT0_EEENS1_IJXspT1_EEEENSA_IJDpT2_EEEDpOT3_', symObjAddr: 0x7DF0, symBinAddr: 0x10000A46C, symSize: 0x34 }
  - { offsetInCU: 0x16EC4, offset: 0x1B4AF, size: 0x8, addend: 0x0, symName: '__ZNSt3__112__tuple_implINS_15__tuple_indicesIJLm0EEEEJRKZNK6Matrix8multiplyEiE3$_2EEC2B8ue170006IJLm0EEJS6_EJEJEJS6_EEENS1_IJXspT_EEEENS_13__tuple_typesIJDpT0_EEENS1_IJXspT1_EEEENSA_IJDpT2_EEEDpOT3_', symObjAddr: 0x7E24, symBinAddr: 0x10000A4A0, symSize: 0x34 }
  - { offsetInCU: 0x16F54, offset: 0x1B53F, size: 0x8, addend: 0x0, symName: '__ZNSt3__112__tuple_leafILm0ERKZNK6Matrix8multiplyEiE3$_2Lb0EEC2B8ue170006IS4_vEEOT_', symObjAddr: 0x7E58, symBinAddr: 0x10000A4D4, symSize: 0x20 }
  - { offsetInCU: 0x16F95, offset: 0x1B580, size: 0x8, addend: 0x0, symName: '__ZNSt3__117__compressed_pairIZNK6Matrix8multiplyEiE3$_2NS_9allocatorIS2_EEEC2B8ue170006IJRKS2_EJOS4_EEENS_21piecewise_construct_tENS_5tupleIJDpT_EEENSB_IJDpT0_EEE', symObjAddr: 0x7E78, symBinAddr: 0x10000A4F4, symSize: 0x54 }
  - { offsetInCU: 0x16FFD, offset: 0x1B5E8, size: 0x8, addend: 0x0, symName: '__ZNSt3__122__compressed_pair_elemIZNK6Matrix8multiplyEiE3$_2Li0ELb0EEC2B8ue170006IJRKS2_EJLm0EEEENS_21piecewise_construct_tENS_5tupleIJDpT_EEENS_15__tuple_indicesIJXspT0_EEEE', symObjAddr: 0x7ECC, symBinAddr: 0x10000A548, symSize: 0x44 }
  - { offsetInCU: 0x17061, offset: 0x1B64C, size: 0x8, addend: 0x0, symName: '__ZNSt3__112__tuple_leafILm0ERKZNK6Matrix8multiplyEiE3$_2Lb0EE3getB8ue170006Ev', symObjAddr: 0x7F34, symBinAddr: 0x10000A5B0, symSize: 0x18 }
  - { offsetInCU: 0x17085, offset: 0x1B670, size: 0x8, addend: 0x0, symName: '__ZNSt3__117__compressed_pairIPNS_10__function6__funcIZNK6Matrix8multiplyEiE3$_2NS_9allocatorIS4_EEFiiEEENS_22__allocator_destructorINS5_IS8_EEEEE5firstB8ue170006Ev', symObjAddr: 0x7F4C, symBinAddr: 0x10000A5C8, symSize: 0x24 }
  - { offsetInCU: 0x170A9, offset: 0x1B694, size: 0x8, addend: 0x0, symName: '__ZNSt3__122__compressed_pair_elemIPNS_10__function6__funcIZNK6Matrix8multiplyEiE3$_2NS_9allocatorIS4_EEFiiEEELi0ELb0EE5__getB8ue170006Ev', symObjAddr: 0x7F70, symBinAddr: 0x10000A5EC, symSize: 0x14 }
  - { offsetInCU: 0x170CD, offset: 0x1B6B8, size: 0x8, addend: 0x0, symName: '__ZNSt3__110unique_ptrINS_10__function6__funcIZNK6Matrix8multiplyEiE3$_2NS_9allocatorIS4_EEFiiEEENS_22__allocator_destructorINS5_IS8_EEEEED2B8ue170006Ev', symObjAddr: 0x7F84, symBinAddr: 0x10000A600, symSize: 0x30 }
  - { offsetInCU: 0x170F5, offset: 0x1B6E0, size: 0x8, addend: 0x0, symName: '__ZNSt3__110unique_ptrINS_10__function6__funcIZNK6Matrix8multiplyEiE3$_2NS_9allocatorIS4_EEFiiEEENS_22__allocator_destructorINS5_IS8_EEEEE5resetB8ue170006EPS8_', symObjAddr: 0x7FB4, symBinAddr: 0x10000A630, symSize: 0x78 }
  - { offsetInCU: 0x17137, offset: 0x1B722, size: 0x8, addend: 0x0, symName: '__ZNSt3__117__compressed_pairIPNS_10__function6__funcIZNK6Matrix8multiplyEiE3$_2NS_9allocatorIS4_EEFiiEEENS_22__allocator_destructorINS5_IS8_EEEEE6secondB8ue170006Ev', symObjAddr: 0x802C, symBinAddr: 0x10000A6A8, symSize: 0x28 }
  - { offsetInCU: 0x1715B, offset: 0x1B746, size: 0x8, addend: 0x0, symName: '__ZNSt3__122__allocator_destructorINS_9allocatorINS_10__function6__funcIZNK6Matrix8multiplyEiE3$_2NS1_IS5_EEFiiEEEEEEclB8ue170006EPS8_', symObjAddr: 0x8054, symBinAddr: 0x10000A6D0, symSize: 0x34 }
  - { offsetInCU: 0x1718D, offset: 0x1B778, size: 0x8, addend: 0x0, symName: '__ZNSt3__122__compressed_pair_elemINS_22__allocator_destructorINS_9allocatorINS_10__function6__funcIZNK6Matrix8multiplyEiE3$_2NS2_IS6_EEFiiEEEEEEELi1ELb0EE5__getB8ue170006Ev', symObjAddr: 0x8088, symBinAddr: 0x10000A704, symSize: 0x14 }
  - { offsetInCU: 0x171B1, offset: 0x1B79C, size: 0x8, addend: 0x0, symName: '__ZNSt3__116allocator_traitsINS_9allocatorINS_10__function6__funcIZNK6Matrix8multiplyEiE3$_2NS1_IS5_EEFiiEEEEEE10deallocateB8ue170006ERS9_PS8_m', symObjAddr: 0x809C, symBinAddr: 0x10000A718, symSize: 0x34 }
  - { offsetInCU: 0x171F2, offset: 0x1B7DD, size: 0x8, addend: 0x0, symName: '__ZNSt3__19allocatorINS_10__function6__funcIZNK6Matrix8multiplyEiE3$_2NS0_IS4_EEFiiEEEE10deallocateB8ue170006EPS7_m', symObjAddr: 0x80D0, symBinAddr: 0x10000A74C, symSize: 0x40 }
  - { offsetInCU: 0x17232, offset: 0x1B81D, size: 0x8, addend: 0x0, symName: '__ZNSt3__110__function6__funcIZNK6Matrix8multiplyEiE3$_2NS_9allocatorIS3_EEFiiEEC1B8ue170006ERKS3_RKS5_', symObjAddr: 0x8110, symBinAddr: 0x10000A78C, symSize: 0x3C }
  - { offsetInCU: 0x17278, offset: 0x1B863, size: 0x8, addend: 0x0, symName: '__ZNSt3__110__function6__funcIZNK6Matrix8multiplyEiE3$_2NS_9allocatorIS3_EEFiiEEC2B8ue170006ERKS3_RKS5_', symObjAddr: 0x814C, symBinAddr: 0x10000A7C8, symSize: 0x88 }
  - { offsetInCU: 0x172BE, offset: 0x1B8A9, size: 0x8, addend: 0x0, symName: '__ZNSt3__110__function12__alloc_funcIZNK6Matrix8multiplyEiE3$_2NS_9allocatorIS3_EEFiiEEC1B8ue170006ERKS3_RKS5_', symObjAddr: 0x81D4, symBinAddr: 0x10000A850, symSize: 0x3C }
  - { offsetInCU: 0x17302, offset: 0x1B8ED, size: 0x8, addend: 0x0, symName: '__ZNSt3__110__function12__alloc_funcIZNK6Matrix8multiplyEiE3$_2NS_9allocatorIS3_EEFiiEEC2B8ue170006ERKS3_RKS5_', symObjAddr: 0x8210, symBinAddr: 0x10000A88C, symSize: 0x5C }
  - { offsetInCU: 0x17346, offset: 0x1B931, size: 0x8, addend: 0x0, symName: '__ZNSt3__117__compressed_pairIZNK6Matrix8multiplyEiE3$_2NS_9allocatorIS2_EEEC1B8ue170006IJRKS2_EJRKS4_EEENS_21piecewise_construct_tENS_5tupleIJDpT_EEENSC_IJDpT0_EEE', symObjAddr: 0x8298, symBinAddr: 0x10000A914, symSize: 0x3C }
  - { offsetInCU: 0x173AE, offset: 0x1B999, size: 0x8, addend: 0x0, symName: '__ZNSt3__15tupleIJRKNS_9allocatorIZNK6Matrix8multiplyEiE3$_2EEEEC1B8ue170006INS_4_AndELi0EEES6_', symObjAddr: 0x82D4, symBinAddr: 0x10000A950, symSize: 0x34 }
  - { offsetInCU: 0x173F6, offset: 0x1B9E1, size: 0x8, addend: 0x0, symName: '__ZNSt3__15tupleIJRKNS_9allocatorIZNK6Matrix8multiplyEiE3$_2EEEEC2B8ue170006INS_4_AndELi0EEES6_', symObjAddr: 0x8308, symBinAddr: 0x10000A984, symSize: 0x34 }
  - { offsetInCU: 0x1743E, offset: 0x1BA29, size: 0x8, addend: 0x0, symName: '__ZNSt3__112__tuple_implINS_15__tuple_indicesIJLm0EEEEJRKNS_9allocatorIZNK6Matrix8multiplyEiE3$_2EEEEC1B8ue170006IJLm0EEJS8_EJEJEJS8_EEENS1_IJXspT_EEEENS_13__tuple_typesIJDpT0_EEENS1_IJXspT1_EEEENSC_IJDpT2_EEEDpOT3_', symObjAddr: 0x833C, symBinAddr: 0x10000A9B8, symSize: 0x34 }
  - { offsetInCU: 0x174CE, offset: 0x1BAB9, size: 0x8, addend: 0x0, symName: '__ZNSt3__112__tuple_implINS_15__tuple_indicesIJLm0EEEEJRKNS_9allocatorIZNK6Matrix8multiplyEiE3$_2EEEEC2B8ue170006IJLm0EEJS8_EJEJEJS8_EEENS1_IJXspT_EEEENS_13__tuple_typesIJDpT0_EEENS1_IJXspT1_EEEENSC_IJDpT2_EEEDpOT3_', symObjAddr: 0x8370, symBinAddr: 0x10000A9EC, symSize: 0x34 }
  - { offsetInCU: 0x1755E, offset: 0x1BB49, size: 0x8, addend: 0x0, symName: '__ZNSt3__112__tuple_leafILm0ERKNS_9allocatorIZNK6Matrix8multiplyEiE3$_2EELb0EEC2B8ue170006IS6_vEEOT_', symObjAddr: 0x83A4, symBinAddr: 0x10000AA20, symSize: 0x20 }
  - { offsetInCU: 0x1759F, offset: 0x1BB8A, size: 0x8, addend: 0x0, symName: '__ZNSt3__117__compressed_pairIZNK6Matrix8multiplyEiE3$_2NS_9allocatorIS2_EEEC2B8ue170006IJRKS2_EJRKS4_EEENS_21piecewise_construct_tENS_5tupleIJDpT_EEENSC_IJDpT0_EEE', symObjAddr: 0x83C4, symBinAddr: 0x10000AA40, symSize: 0x54 }
  - { offsetInCU: 0x17607, offset: 0x1BBF2, size: 0x8, addend: 0x0, symName: '__ZNSt3__122__compressed_pair_elemINS_9allocatorIZNK6Matrix8multiplyEiE3$_2EELi1ELb1EEC2B8ue170006IJRKS4_EJLm0EEEENS_21piecewise_construct_tENS_5tupleIJDpT_EEENS_15__tuple_indicesIJXspT0_EEEE', symObjAddr: 0x8418, symBinAddr: 0x10000AA94, symSize: 0x38 }
  - { offsetInCU: 0x1766B, offset: 0x1BC56, size: 0x8, addend: 0x0, symName: '__ZNSt3__112__tuple_leafILm0ERKNS_9allocatorIZNK6Matrix8multiplyEiE3$_2EELb0EE3getB8ue170006Ev', symObjAddr: 0x8474, symBinAddr: 0x10000AAF0, symSize: 0x18 }
  - { offsetInCU: 0x1768F, offset: 0x1BC7A, size: 0x8, addend: 0x0, symName: '__ZNSt3__110__function12__alloc_funcIZNK6Matrix8multiplyEiE3$_2NS_9allocatorIS3_EEFiiEE7destroyB8ue170006Ev', symObjAddr: 0x848C, symBinAddr: 0x10000AB08, symSize: 0x10 }
  - { offsetInCU: 0x176B3, offset: 0x1BC9E, size: 0x8, addend: 0x0, symName: '__ZNSt3__110__function12__alloc_funcIZNK6Matrix8multiplyEiE3$_2NS_9allocatorIS3_EEFiiEEclB8ue170006EOi', symObjAddr: 0x849C, symBinAddr: 0x10000AB18, symSize: 0x30 }
  - { offsetInCU: 0x176E5, offset: 0x1BCD0, size: 0x8, addend: 0x0, symName: '__ZNSt3__128__invoke_void_return_wrapperIiLb0EE6__callB8ue170006IJRZNK6Matrix8multiplyEiE3$_2iEEEiDpOT_', symObjAddr: 0x84CC, symBinAddr: 0x10000AB48, symSize: 0x2C }
  - { offsetInCU: 0x17727, offset: 0x1BD12, size: 0x8, addend: 0x0, symName: '__ZNSt3__117__compressed_pairIZNK6Matrix8multiplyEiE3$_2NS_9allocatorIS2_EEE5firstB8ue170006Ev', symObjAddr: 0x84F8, symBinAddr: 0x10000AB74, symSize: 0x24 }
  - { offsetInCU: 0x17750, offset: 0x1BD3B, size: 0x8, addend: 0x0, symName: '__ZZNK6Matrix8multiplyEiENK3$_2clEi', symObjAddr: 0x854C, symBinAddr: 0x10000ABC8, symSize: 0x24 }
  - { offsetInCU: 0x17786, offset: 0x1BD71, size: 0x8, addend: 0x0, symName: '__ZNSt3__122__compressed_pair_elemIZNK6Matrix8multiplyEiE3$_2Li0ELb0EE5__getB8ue170006Ev', symObjAddr: 0x8570, symBinAddr: 0x10000ABEC, symSize: 0x14 }
  - { offsetInCU: 0x177AA, offset: 0x1BD95, size: 0x8, addend: 0x0, symName: __ZNKSt3__16vectorIiNS_9allocatorIiEEE11__make_iterB8ue170006EPKi, symObjAddr: 0x8584, symBinAddr: 0x10000AC00, symSize: 0x30 }
  - { offsetInCU: 0x177DD, offset: 0x1BDC8, size: 0x8, addend: 0x0, symName: __ZNSt3__111__wrap_iterIPKiEC1B8ue170006ES2_, symObjAddr: 0x85B4, symBinAddr: 0x10000AC30, symSize: 0x34 }
  - { offsetInCU: 0x17813, offset: 0x1BDFE, size: 0x8, addend: 0x0, symName: __ZNSt3__111__wrap_iterIPKiEC2B8ue170006ES2_, symObjAddr: 0x85E8, symBinAddr: 0x10000AC64, symSize: 0x20 }
  - { offsetInCU: 0x17849, offset: 0x1BE34, size: 0x8, addend: 0x0, symName: __ZNSt3__16vectorIiNS_9allocatorIiEEE11__make_iterB8ue170006EPi, symObjAddr: 0x8608, symBinAddr: 0x10000AC84, symSize: 0x30 }
  - { offsetInCU: 0x1787C, offset: 0x1BE67, size: 0x8, addend: 0x0, symName: __ZNSt3__111__wrap_iterIPiEC1B8ue170006ES1_, symObjAddr: 0x8638, symBinAddr: 0x10000ACB4, symSize: 0x34 }
  - { offsetInCU: 0x178B2, offset: 0x1BE9D, size: 0x8, addend: 0x0, symName: __ZNSt3__111__wrap_iterIPiEC2B8ue170006ES1_, symObjAddr: 0x866C, symBinAddr: 0x10000ACE8, symSize: 0x20 }
  - { offsetInCU: 0x178E8, offset: 0x1BED3, size: 0x8, addend: 0x0, symName: __ZNKSt3__18functionIFiiEEclEi, symObjAddr: 0x86C0, symBinAddr: 0x10000AD3C, symSize: 0x30 }
  - { offsetInCU: 0x1791E, offset: 0x1BF09, size: 0x8, addend: 0x0, symName: __ZNKSt3__111__wrap_iterIPKiEdeB8ue170006Ev, symObjAddr: 0x86F0, symBinAddr: 0x10000AD6C, symSize: 0x18 }
  - { offsetInCU: 0x17942, offset: 0x1BF2D, size: 0x8, addend: 0x0, symName: __ZNKSt3__111__wrap_iterIPiEdeB8ue170006Ev, symObjAddr: 0x8708, symBinAddr: 0x10000AD84, symSize: 0x18 }
  - { offsetInCU: 0x17966, offset: 0x1BF51, size: 0x8, addend: 0x0, symName: __ZNSt3__111__wrap_iterIPKiEppB8ue170006Ev, symObjAddr: 0x8720, symBinAddr: 0x10000AD9C, symSize: 0x20 }
  - { offsetInCU: 0x1798A, offset: 0x1BF75, size: 0x8, addend: 0x0, symName: __ZNSt3__111__wrap_iterIPiEppB8ue170006Ev, symObjAddr: 0x8740, symBinAddr: 0x10000ADBC, symSize: 0x20 }
  - { offsetInCU: 0x179AE, offset: 0x1BF99, size: 0x8, addend: 0x0, symName: __ZNKSt3__111__wrap_iterIPKiE4baseB8ue170006Ev, symObjAddr: 0x87A8, symBinAddr: 0x10000AE24, symSize: 0x18 }
  - { offsetInCU: 0x179D2, offset: 0x1BFBD, size: 0x8, addend: 0x0, symName: __ZNKSt3__110__function12__value_funcIFiiEEclB8ue170006EOi, symObjAddr: 0x87C0, symBinAddr: 0x10000AE3C, symSize: 0x58 }
  - { offsetInCU: 0x17A0A, offset: 0x1BFF5, size: 0x8, addend: 0x0, symName: __ZNSt3__117bad_function_callC1Ev, symObjAddr: 0x8850, symBinAddr: 0x10000AECC, symSize: 0x2C }
  - { offsetInCU: 0x17A34, offset: 0x1C01F, size: 0x8, addend: 0x0, symName: __ZNSt3__117bad_function_callD1Ev, symObjAddr: 0x887C, symBinAddr: 0x10000AEF8, symSize: 0x2C }
  - { offsetInCU: 0x17A5C, offset: 0x1C047, size: 0x8, addend: 0x0, symName: __ZNSt3__117bad_function_callC2Ev, symObjAddr: 0x88A8, symBinAddr: 0x10000AF24, symSize: 0x44 }
  - { offsetInCU: 0x17A86, offset: 0x1C071, size: 0x8, addend: 0x0, symName: __ZNSt9exceptionC2B8ue170006Ev, symObjAddr: 0x88EC, symBinAddr: 0x10000AF68, symSize: 0x24 }
  - { offsetInCU: 0x17AAE, offset: 0x1C099, size: 0x8, addend: 0x0, symName: __ZNSt3__117bad_function_callD0Ev, symObjAddr: 0x8910, symBinAddr: 0x10000AF8C, symSize: 0x30 }
  - { offsetInCU: 0x17AD6, offset: 0x1C0C1, size: 0x8, addend: 0x0, symName: __ZNSt3__117bad_function_callD2Ev, symObjAddr: 0x8940, symBinAddr: 0x10000AFBC, symSize: 0x2C }
  - { offsetInCU: 0x17AFE, offset: 0x1C0E9, size: 0x8, addend: 0x0, symName: __ZNSt3__18functionIFiiEEC2ERKS2_, symObjAddr: 0x896C, symBinAddr: 0x10000AFE8, symSize: 0x34 }
  - { offsetInCU: 0x17B38, offset: 0x1C123, size: 0x8, addend: 0x0, symName: __ZNSt3__110__function12__value_funcIFiiEEC1B8ue170006ERKS3_, symObjAddr: 0x89A0, symBinAddr: 0x10000B01C, symSize: 0x34 }
  - { offsetInCU: 0x17B6F, offset: 0x1C15A, size: 0x8, addend: 0x0, symName: __ZNSt3__110__function12__value_funcIFiiEEC2B8ue170006ERKS3_, symObjAddr: 0x89D4, symBinAddr: 0x10000B050, symSize: 0xC0 }
  - { offsetInCU: 0x17BA6, offset: 0x1C191, size: 0x8, addend: 0x0, symName: __ZNSt3__110__function12__value_funcIFiiEE9__as_baseB8ue170006EPv, symObjAddr: 0x8A94, symBinAddr: 0x10000B110, symSize: 0x14 }
  - { offsetInCU: 0x17BD4, offset: 0x1C1BF, size: 0x8, addend: 0x0, symName: '__ZZNK6Matrix3addES_EN3$_3clERKi', symObjAddr: 0x8ADC, symBinAddr: 0x10000B158, symSize: 0x50 }
  - { offsetInCU: 0x17C0A, offset: 0x1C1F5, size: 0x8, addend: 0x0, symName: __ZNKSt3__111__wrap_iterIPiE4baseB8ue170006Ev, symObjAddr: 0x8B74, symBinAddr: 0x10000B1F0, symSize: 0x18 }
  - { offsetInCU: 0x17C33, offset: 0x1C21E, size: 0x8, addend: 0x0, symName: '__ZZNK6Matrix8subtractES_EN3$_4clERKi', symObjAddr: 0x8B8C, symBinAddr: 0x10000B208, symSize: 0x50 }
...
